
main:     file format elf32-tradlittlemips


Disassembly of section .text:

a0800200 <_start>:
a0800200:	27bdffe8 	addiu	sp,sp,-24
a0800204:	afbf0014 	sw	ra,20(sp)
a0800208:	afbe0010 	sw	s8,16(sp)
a080020c:	03a0f021 	move	s8,sp
a0800210:	0c2000a8 	jal	a08002a0 <asm_start>
a0800214:	00000000 	nop
a0800218:	0c2005ea 	jal	a08017a8 <init_exception>
a080021c:	00000000 	nop
a0800220:	3c02a080 	lui	v0,0xa080
a0800224:	24446af0 	addiu	a0,v0,27376
a0800228:	0c201719 	jal	a0805c64 <printk>
a080022c:	00000000 	nop
a0800230:	0c20064f 	jal	a080193c <init_syscall>
a0800234:	00000000 	nop
a0800238:	3c02a080 	lui	v0,0xa080
a080023c:	24446b2c 	addiu	a0,v0,27436
a0800240:	0c201719 	jal	a0805c64 <printk>
a0800244:	00000000 	nop
a0800248:	0c2004e4 	jal	a0801390 <init_page_table>
a080024c:	00000000 	nop
a0800250:	0c200551 	jal	a0801544 <init_pcb>
a0800254:	00000000 	nop
a0800258:	3c02a080 	lui	v0,0xa080
a080025c:	24446b5c 	addiu	a0,v0,27484
a0800260:	0c201719 	jal	a0805c64 <printk>
a0800264:	00000000 	nop
a0800268:	0c2003fd 	jal	a0800ff4 <init_screen>
a080026c:	00000000 	nop
a0800270:	3c02a080 	lui	v0,0xa080
a0800274:	24446b84 	addiu	a0,v0,27524
a0800278:	0c201719 	jal	a0805c64 <printk>
a080027c:	00000000 	nop
a0800280:	3c02a080 	lui	v0,0xa080
a0800284:	8c4270c8 	lw	v0,28872(v0)
a0800288:	00402021 	move	a0,v0
a080028c:	0c2000d8 	jal	a0800360 <SET_CP0_STATUS>
a0800290:	00000000 	nop
a0800294:	082000a5 	j	a0800294 <_start+0x94>
a0800298:	00000000 	nop
a080029c:	00000000 	nop

a08002a0 <asm_start>:
a08002a0:	40806000 	mtc0	zero,c0_sr
a08002a4:	00000000 	nop
a08002a8:	40809000 	mtc0	zero,c0_watchlo
a08002ac:	00000000 	nop
a08002b0:	40809800 	mtc0	zero,c0_watchhi
a08002b4:	00000000 	nop
a08002b8:	40088000 	mfc0	t0,c0_config
a08002bc:	2401fff8 	li	at,-8
a08002c0:	01014024 	and	t0,t0,at
a08002c4:	35080002 	ori	t0,t0,0x2
a08002c8:	40888000 	mtc0	t0,c0_config
a08002cc:	03e00008 	jr	ra
a08002d0:	00000000 	nop

a08002d4 <GET_CP0_ENTRYHI>:
a08002d4:	40025000 	mfc0	v0,c0_entryhi
a08002d8:	03e00008 	jr	ra
a08002dc:	00000000 	nop

a08002e0 <SET_CP0_ENTRYHI>:
a08002e0:	40845000 	mtc0	a0,c0_entryhi
a08002e4:	03e00008 	jr	ra
a08002e8:	00000000 	nop

a08002ec <GET_CP0_ENTRYLO0>:
a08002ec:	40021000 	mfc0	v0,c0_entrylo0
a08002f0:	03e00008 	jr	ra
a08002f4:	00000000 	nop

a08002f8 <SET_CP0_ENTRYLO0>:
a08002f8:	40841000 	mtc0	a0,c0_entrylo0
a08002fc:	03e00008 	jr	ra
a0800300:	00000000 	nop

a0800304 <GET_CP0_ENTRYLO1>:
a0800304:	40021800 	mfc0	v0,c0_entrylo1
a0800308:	03e00008 	jr	ra
a080030c:	00000000 	nop

a0800310 <SET_CP0_ENTRYLO1>:
a0800310:	40841800 	mtc0	a0,c0_entrylo1
a0800314:	03e00008 	jr	ra
a0800318:	00000000 	nop

a080031c <GET_CP0_PAGEMASK>:
a080031c:	40022800 	mfc0	v0,c0_pagemask
a0800320:	03e00008 	jr	ra
a0800324:	00000000 	nop

a0800328 <SET_CP0_PAGEMASK>:
a0800328:	40842800 	mtc0	a0,c0_pagemask
a080032c:	03e00008 	jr	ra
a0800330:	00000000 	nop

a0800334 <GET_CP0_INDEX>:
a0800334:	40020000 	mfc0	v0,c0_index
a0800338:	03e00008 	jr	ra
a080033c:	00000000 	nop
a0800340:	00000000 	nop

a0800344 <SET_CP0_INDEX>:
a0800344:	40840000 	mtc0	a0,c0_index
a0800348:	03e00008 	jr	ra
a080034c:	00000000 	nop
a0800350:	00000000 	nop

a0800354 <GET_CP0_STATUS>:
a0800354:	40026000 	mfc0	v0,c0_sr
a0800358:	03e00008 	jr	ra
a080035c:	00000000 	nop

a0800360 <SET_CP0_STATUS>:
a0800360:	40846000 	mtc0	a0,c0_sr
a0800364:	03e00008 	jr	ra
a0800368:	00000000 	nop

a080036c <GET_CP0_COUNT>:
a080036c:	40024800 	mfc0	v0,c0_count
a0800370:	03e00008 	jr	ra
a0800374:	00000000 	nop

a0800378 <SET_CP0_COUNT>:
a0800378:	40844800 	mtc0	a0,c0_count
a080037c:	03e00008 	jr	ra
a0800380:	00000000 	nop

a0800384 <GET_CP0_COMPARE>:
a0800384:	40025800 	mfc0	v0,c0_compare
a0800388:	03e00008 	jr	ra
a080038c:	00000000 	nop

a0800390 <SET_CP0_COMPARE>:
a0800390:	40845800 	mtc0	a0,c0_compare
a0800394:	03e00008 	jr	ra
a0800398:	00000000 	nop

a080039c <GET_CP0_EPC>:
a080039c:	40027000 	mfc0	v0,c0_epc
a08003a0:	03e00008 	jr	ra
a08003a4:	00000000 	nop

a08003a8 <SET_CP0_EPC>:
a08003a8:	40847000 	mtc0	a0,c0_epc
a08003ac:	03e00008 	jr	ra
a08003b0:	00000000 	nop

a08003b4 <SET_CP0_CONTEXT>:
a08003b4:	40842000 	mtc0	a0,c0_context
a08003b8:	03e00008 	jr	ra
a08003bc:	00000000 	nop

a08003c0 <GET_CP0_CONTEXT>:
a08003c0:	40042000 	mfc0	a0,c0_context
a08003c4:	03e00008 	jr	ra
a08003c8:	00000000 	nop

a08003cc <SET_CP0_BADVADDR>:
a08003cc:	40844000 	mtc0	a0,c0_badvaddr
a08003d0:	03e00008 	jr	ra
a08003d4:	00000000 	nop

a08003d8 <GET_CP0_BADVADDR>:
a08003d8:	40044000 	mfc0	a0,c0_badvaddr
a08003dc:	03e00008 	jr	ra
a08003e0:	00000000 	nop

a08003e4 <do_scheduler>:
a08003e4:	3c1aa080 	lui	k0,0xa080
a08003e8:	8f5a70cc 	lw	k0,28876(k0)
a08003ec:	275a0000 	addiu	k0,k0,0
a08003f0:	af400000 	sw	zero,0(k0)
a08003f4:	af410004 	sw	at,4(k0)
a08003f8:	af420008 	sw	v0,8(k0)
a08003fc:	af43000c 	sw	v1,12(k0)
a0800400:	af440010 	sw	a0,16(k0)
a0800404:	af450014 	sw	a1,20(k0)
a0800408:	af460018 	sw	a2,24(k0)
a080040c:	af47001c 	sw	a3,28(k0)
a0800410:	af480020 	sw	t0,32(k0)
a0800414:	af490024 	sw	t1,36(k0)
a0800418:	af4a0028 	sw	t2,40(k0)
a080041c:	af4b002c 	sw	t3,44(k0)
a0800420:	af4c0030 	sw	t4,48(k0)
a0800424:	af4d0034 	sw	t5,52(k0)
a0800428:	af4e0038 	sw	t6,56(k0)
a080042c:	af4f003c 	sw	t7,60(k0)
a0800430:	af500040 	sw	s0,64(k0)
a0800434:	af510044 	sw	s1,68(k0)
a0800438:	af520048 	sw	s2,72(k0)
a080043c:	af53004c 	sw	s3,76(k0)
a0800440:	af540050 	sw	s4,80(k0)
a0800444:	af550054 	sw	s5,84(k0)
a0800448:	af560058 	sw	s6,88(k0)
a080044c:	af57005c 	sw	s7,92(k0)
a0800450:	af580060 	sw	t8,96(k0)
a0800454:	af590064 	sw	t9,100(k0)
a0800458:	af5c0070 	sw	gp,112(k0)
a080045c:	af5d0074 	sw	sp,116(k0)
a0800460:	af5e0078 	sw	s8,120(k0)
a0800464:	af5f007c 	sw	ra,124(k0)
a0800468:	401b6000 	mfc0	k1,c0_sr
a080046c:	00000000 	nop
a0800470:	af5b0080 	sw	k1,128(k0)
a0800474:	401b9800 	mfc0	k1,c0_watchhi
a0800478:	00000000 	nop
a080047c:	af5b0084 	sw	k1,132(k0)
a0800480:	401b9000 	mfc0	k1,c0_watchlo
a0800484:	00000000 	nop
a0800488:	af5b0088 	sw	k1,136(k0)
a080048c:	401b4000 	mfc0	k1,c0_badvaddr
a0800490:	00000000 	nop
a0800494:	af5b008c 	sw	k1,140(k0)
a0800498:	401b6800 	mfc0	k1,c0_cause
a080049c:	00000000 	nop
a08004a0:	af5b0090 	sw	k1,144(k0)
a08004a4:	401b7000 	mfc0	k1,c0_epc
a08004a8:	00000000 	nop
a08004ac:	0c200b3b 	jal	a0802cec <scheduler>
a08004b0:	af5b0094 	sw	k1,148(k0)
a08004b4:	3c1aa080 	lui	k0,0xa080
a08004b8:	8f5a70cc 	lw	k0,28876(k0)
a08004bc:	275a0000 	addiu	k0,k0,0
a08004c0:	8f400000 	lw	zero,0(k0)
a08004c4:	8f410004 	lw	at,4(k0)
a08004c8:	8f420008 	lw	v0,8(k0)
a08004cc:	8f43000c 	lw	v1,12(k0)
a08004d0:	8f440010 	lw	a0,16(k0)
a08004d4:	8f450014 	lw	a1,20(k0)
a08004d8:	8f460018 	lw	a2,24(k0)
a08004dc:	8f47001c 	lw	a3,28(k0)
a08004e0:	8f480020 	lw	t0,32(k0)
a08004e4:	8f490024 	lw	t1,36(k0)
a08004e8:	8f4a0028 	lw	t2,40(k0)
a08004ec:	8f4b002c 	lw	t3,44(k0)
a08004f0:	8f4c0030 	lw	t4,48(k0)
a08004f4:	8f4d0034 	lw	t5,52(k0)
a08004f8:	8f4e0038 	lw	t6,56(k0)
a08004fc:	8f4f003c 	lw	t7,60(k0)
a0800500:	8f500040 	lw	s0,64(k0)
a0800504:	8f510044 	lw	s1,68(k0)
a0800508:	8f520048 	lw	s2,72(k0)
a080050c:	8f53004c 	lw	s3,76(k0)
a0800510:	8f540050 	lw	s4,80(k0)
a0800514:	8f550054 	lw	s5,84(k0)
a0800518:	8f560058 	lw	s6,88(k0)
a080051c:	8f57005c 	lw	s7,92(k0)
a0800520:	8f580060 	lw	t8,96(k0)
a0800524:	8f590064 	lw	t9,100(k0)
a0800528:	8f5c0070 	lw	gp,112(k0)
a080052c:	8f5d0074 	lw	sp,116(k0)
a0800530:	8f5e0078 	lw	s8,120(k0)
a0800534:	8f5f007c 	lw	ra,124(k0)
a0800538:	8f5b0080 	lw	k1,128(k0)
a080053c:	409b6000 	mtc0	k1,c0_sr
a0800540:	8f5b0084 	lw	k1,132(k0)
a0800544:	409b9800 	mtc0	k1,c0_watchhi
a0800548:	8f5b0088 	lw	k1,136(k0)
a080054c:	409b9000 	mtc0	k1,c0_watchlo
a0800550:	8f5b008c 	lw	k1,140(k0)
a0800554:	409b4000 	mtc0	k1,c0_badvaddr
a0800558:	8f5b0090 	lw	k1,144(k0)
a080055c:	409b6800 	mtc0	k1,c0_cause
a0800560:	8f5b0094 	lw	k1,148(k0)
a0800564:	409b7000 	mtc0	k1,c0_epc
a0800568:	03e00008 	jr	ra
a080056c:	00000000 	nop

a0800570 <TLBexception_handler_entry>:
a0800570:	401a6000 	mfc0	k0,c0_sr
a0800574:	241bfffe 	li	k1,-2
a0800578:	035bd024 	and	k0,k0,k1
a080057c:	409a6000 	mtc0	k0,c0_sr
a0800580:	3c1aa080 	lui	k0,0xa080
a0800584:	8f5a70cc 	lw	k0,28876(k0)
a0800588:	275a009c 	addiu	k0,k0,156
a080058c:	af400000 	sw	zero,0(k0)
a0800590:	af410004 	sw	at,4(k0)
a0800594:	af420008 	sw	v0,8(k0)
a0800598:	af43000c 	sw	v1,12(k0)
a080059c:	af440010 	sw	a0,16(k0)
a08005a0:	af450014 	sw	a1,20(k0)
a08005a4:	af460018 	sw	a2,24(k0)
a08005a8:	af47001c 	sw	a3,28(k0)
a08005ac:	af480020 	sw	t0,32(k0)
a08005b0:	af490024 	sw	t1,36(k0)
a08005b4:	af4a0028 	sw	t2,40(k0)
a08005b8:	af4b002c 	sw	t3,44(k0)
a08005bc:	af4c0030 	sw	t4,48(k0)
a08005c0:	af4d0034 	sw	t5,52(k0)
a08005c4:	af4e0038 	sw	t6,56(k0)
a08005c8:	af4f003c 	sw	t7,60(k0)
a08005cc:	af500040 	sw	s0,64(k0)
a08005d0:	af510044 	sw	s1,68(k0)
a08005d4:	af520048 	sw	s2,72(k0)
a08005d8:	af53004c 	sw	s3,76(k0)
a08005dc:	af540050 	sw	s4,80(k0)
a08005e0:	af550054 	sw	s5,84(k0)
a08005e4:	af560058 	sw	s6,88(k0)
a08005e8:	af57005c 	sw	s7,92(k0)
a08005ec:	af580060 	sw	t8,96(k0)
a08005f0:	af590064 	sw	t9,100(k0)
a08005f4:	af5c0070 	sw	gp,112(k0)
a08005f8:	af5d0074 	sw	sp,116(k0)
a08005fc:	af5e0078 	sw	s8,120(k0)
a0800600:	af5f007c 	sw	ra,124(k0)
a0800604:	401b6000 	mfc0	k1,c0_sr
a0800608:	00000000 	nop
a080060c:	af5b0080 	sw	k1,128(k0)
a0800610:	401b9800 	mfc0	k1,c0_watchhi
a0800614:	00000000 	nop
a0800618:	af5b0084 	sw	k1,132(k0)
a080061c:	401b9000 	mfc0	k1,c0_watchlo
a0800620:	00000000 	nop
a0800624:	af5b0088 	sw	k1,136(k0)
a0800628:	401b4000 	mfc0	k1,c0_badvaddr
a080062c:	00000000 	nop
a0800630:	af5b008c 	sw	k1,140(k0)
a0800634:	401b6800 	mfc0	k1,c0_cause
a0800638:	00000000 	nop
a080063c:	af5b0090 	sw	k1,144(k0)
a0800640:	401b7000 	mfc0	k1,c0_epc
a0800644:	00000000 	nop
a0800648:	0820024d 	j	a0800934 <handle_TLB>
a080064c:	af5b0094 	sw	k1,148(k0)
a0800650:	00000000 	nop

a0800654 <exception_handler_entry>:
a0800654:	401a6000 	mfc0	k0,c0_sr
a0800658:	241bfffe 	li	k1,-2
a080065c:	035bd024 	and	k0,k0,k1
a0800660:	409a6000 	mtc0	k0,c0_sr
a0800664:	3c1aa080 	lui	k0,0xa080
a0800668:	8f5a70cc 	lw	k0,28876(k0)
a080066c:	275a009c 	addiu	k0,k0,156
a0800670:	af400000 	sw	zero,0(k0)
a0800674:	af410004 	sw	at,4(k0)
a0800678:	af420008 	sw	v0,8(k0)
a080067c:	af43000c 	sw	v1,12(k0)
a0800680:	af440010 	sw	a0,16(k0)
a0800684:	af450014 	sw	a1,20(k0)
a0800688:	af460018 	sw	a2,24(k0)
a080068c:	af47001c 	sw	a3,28(k0)
a0800690:	af480020 	sw	t0,32(k0)
a0800694:	af490024 	sw	t1,36(k0)
a0800698:	af4a0028 	sw	t2,40(k0)
a080069c:	af4b002c 	sw	t3,44(k0)
a08006a0:	af4c0030 	sw	t4,48(k0)
a08006a4:	af4d0034 	sw	t5,52(k0)
a08006a8:	af4e0038 	sw	t6,56(k0)
a08006ac:	af4f003c 	sw	t7,60(k0)
a08006b0:	af500040 	sw	s0,64(k0)
a08006b4:	af510044 	sw	s1,68(k0)
a08006b8:	af520048 	sw	s2,72(k0)
a08006bc:	af53004c 	sw	s3,76(k0)
a08006c0:	af540050 	sw	s4,80(k0)
a08006c4:	af550054 	sw	s5,84(k0)
a08006c8:	af560058 	sw	s6,88(k0)
a08006cc:	af57005c 	sw	s7,92(k0)
a08006d0:	af580060 	sw	t8,96(k0)
a08006d4:	af590064 	sw	t9,100(k0)
a08006d8:	af5c0070 	sw	gp,112(k0)
a08006dc:	af5d0074 	sw	sp,116(k0)
a08006e0:	af5e0078 	sw	s8,120(k0)
a08006e4:	af5f007c 	sw	ra,124(k0)
a08006e8:	401b6000 	mfc0	k1,c0_sr
a08006ec:	00000000 	nop
a08006f0:	af5b0080 	sw	k1,128(k0)
a08006f4:	401b9800 	mfc0	k1,c0_watchhi
a08006f8:	00000000 	nop
a08006fc:	af5b0084 	sw	k1,132(k0)
a0800700:	401b9000 	mfc0	k1,c0_watchlo
a0800704:	00000000 	nop
a0800708:	af5b0088 	sw	k1,136(k0)
a080070c:	401b4000 	mfc0	k1,c0_badvaddr
a0800710:	00000000 	nop
a0800714:	af5b008c 	sw	k1,140(k0)
a0800718:	401b6800 	mfc0	k1,c0_cause
a080071c:	00000000 	nop
a0800720:	af5b0090 	sw	k1,144(k0)
a0800724:	401b7000 	mfc0	k1,c0_epc
a0800728:	00000000 	nop
a080072c:	af5b0094 	sw	k1,148(k0)
a0800730:	401b6800 	mfc0	k1,c0_cause
a0800734:	00000000 	nop
a0800738:	337b007c 	andi	k1,k1,0x7c
a080073c:	3c1aa082 	lui	k0,0xa082
a0800740:	275a8960 	addiu	k0,k0,-30368
a0800744:	035bd020 	add	k0,k0,k1
a0800748:	8f5a0000 	lw	k0,0(k0)
a080074c:	03400008 	jr	k0
a0800750:	00000000 	nop

a0800754 <handle_int>:
a0800754:	40046000 	mfc0	a0,c0_sr
a0800758:	40056800 	mfc0	a1,c0_cause
a080075c:	0c200705 	jal	a0801c14 <interrupt_helper>
a0800760:	23bdfff8 	addi	sp,sp,-8
a0800764:	23bd0008 	addi	sp,sp,8

a0800768 <init_handle>:
a0800768:	40804800 3c1a0002 375a49f0 409a5800     .H.@...<.IZ7.X.@
a0800778:	3c1aa080 8f5a70cc 275a009c 8f400000     ...<.pZ...Z'..@.
a0800788:	8f410004 8f420008 8f43000c 8f440010     ..A...B...C...D.
a0800798:	8f450014 8f460018 8f47001c 8f480020     ..E...F...G. .H.
a08007a8:	8f490024 8f4a0028 8f4b002c 8f4c0030     $.I.(.J.,.K.0.L.
a08007b8:	8f4d0034 8f4e0038 8f4f003c 8f500040     4.M.8.N.<.O.@.P.
a08007c8:	8f510044 8f520048 8f53004c 8f540050     D.Q.H.R.L.S.P.T.
a08007d8:	8f550054 8f560058 8f57005c 8f580060     T.U.X.V.\.W.`.X.
a08007e8:	8f590064 8f5c0070 8f5d0074 8f5e0078     d.Y.p.\.t.].x.^.
a08007f8:	8f5f007c 8f5b0080 409b6000 8f5b0084     |._...[..`.@..[.
a0800808:	409b9800 8f5b0088 409b9000 8f5b008c     ...@..[....@..[.
a0800818:	409b4000 8f5b0090 409b6800 8f5b0094     .@.@..[..h.@..[.
a0800828:	409b7000 00000000 401a6000 00000000     .p.@.....`.@....
a0800838:	375a0003 409a6000 42000018 00000000     ..Z7.`.@...B....

a0800848 <handle_syscall>:
a0800848:	00c03820 	add	a3,a2,zero
a080084c:	00a03020 	add	a2,a1,zero
a0800850:	00802820 	add	a1,a0,zero
a0800854:	00402020 	add	a0,v0,zero
a0800858:	0c201154 	jal	a0804550 <system_call_helper>
a080085c:	23bdfff0 	addi	sp,sp,-16
a0800860:	23bd0010 	addi	sp,sp,16
a0800864:	3c1aa080 	lui	k0,0xa080
a0800868:	8f5a70cc 	lw	k0,28876(k0)
a080086c:	275a009c 	addiu	k0,k0,156
a0800870:	8f400000 	lw	zero,0(k0)
a0800874:	8f410004 	lw	at,4(k0)
a0800878:	8f420008 	lw	v0,8(k0)
a080087c:	8f43000c 	lw	v1,12(k0)
a0800880:	8f440010 	lw	a0,16(k0)
a0800884:	8f450014 	lw	a1,20(k0)
a0800888:	8f460018 	lw	a2,24(k0)
a080088c:	8f47001c 	lw	a3,28(k0)
a0800890:	8f480020 	lw	t0,32(k0)
a0800894:	8f490024 	lw	t1,36(k0)
a0800898:	8f4a0028 	lw	t2,40(k0)
a080089c:	8f4b002c 	lw	t3,44(k0)
a08008a0:	8f4c0030 	lw	t4,48(k0)
a08008a4:	8f4d0034 	lw	t5,52(k0)
a08008a8:	8f4e0038 	lw	t6,56(k0)
a08008ac:	8f4f003c 	lw	t7,60(k0)
a08008b0:	8f500040 	lw	s0,64(k0)
a08008b4:	8f510044 	lw	s1,68(k0)
a08008b8:	8f520048 	lw	s2,72(k0)
a08008bc:	8f53004c 	lw	s3,76(k0)
a08008c0:	8f540050 	lw	s4,80(k0)
a08008c4:	8f550054 	lw	s5,84(k0)
a08008c8:	8f560058 	lw	s6,88(k0)
a08008cc:	8f57005c 	lw	s7,92(k0)
a08008d0:	8f580060 	lw	t8,96(k0)
a08008d4:	8f590064 	lw	t9,100(k0)
a08008d8:	8f5c0070 	lw	gp,112(k0)
a08008dc:	8f5d0074 	lw	sp,116(k0)
a08008e0:	8f5e0078 	lw	s8,120(k0)
a08008e4:	8f5f007c 	lw	ra,124(k0)
a08008e8:	8f5b0080 	lw	k1,128(k0)
a08008ec:	409b6000 	mtc0	k1,c0_sr
a08008f0:	8f5b0084 	lw	k1,132(k0)
a08008f4:	409b9800 	mtc0	k1,c0_watchhi
a08008f8:	8f5b0088 	lw	k1,136(k0)
a08008fc:	409b9000 	mtc0	k1,c0_watchlo
a0800900:	8f5b008c 	lw	k1,140(k0)
a0800904:	409b4000 	mtc0	k1,c0_badvaddr
a0800908:	8f5b0090 	lw	k1,144(k0)
a080090c:	409b6800 	mtc0	k1,c0_cause
a0800910:	8f5b0094 	lw	k1,148(k0)
a0800914:	409b7000 	mtc0	k1,c0_epc
a0800918:	00000000 	nop
a080091c:	401a6000 	mfc0	k0,c0_sr
a0800920:	00000000 	nop
a0800924:	375a0003 	ori	k0,k0,0x3
a0800928:	409a6000 	mtc0	k0,c0_sr
a080092c:	42000018 	eret
a0800930:	00000000 	nop

a0800934 <handle_TLB>:
a0800934:	40802800 	mtc0	zero,c0_pagemask
a0800938:	0c2009ee 	jal	a08027b8 <do_TLB_Refill>
a080093c:	00000000 	nop
a0800940:	00000000 	nop
a0800944:	3c1aa080 	lui	k0,0xa080
a0800948:	8f5a70cc 	lw	k0,28876(k0)
a080094c:	275a009c 	addiu	k0,k0,156
a0800950:	8f400000 	lw	zero,0(k0)
a0800954:	8f410004 	lw	at,4(k0)
a0800958:	8f420008 	lw	v0,8(k0)
a080095c:	8f43000c 	lw	v1,12(k0)
a0800960:	8f440010 	lw	a0,16(k0)
a0800964:	8f450014 	lw	a1,20(k0)
a0800968:	8f460018 	lw	a2,24(k0)
a080096c:	8f47001c 	lw	a3,28(k0)
a0800970:	8f480020 	lw	t0,32(k0)
a0800974:	8f490024 	lw	t1,36(k0)
a0800978:	8f4a0028 	lw	t2,40(k0)
a080097c:	8f4b002c 	lw	t3,44(k0)
a0800980:	8f4c0030 	lw	t4,48(k0)
a0800984:	8f4d0034 	lw	t5,52(k0)
a0800988:	8f4e0038 	lw	t6,56(k0)
a080098c:	8f4f003c 	lw	t7,60(k0)
a0800990:	8f500040 	lw	s0,64(k0)
a0800994:	8f510044 	lw	s1,68(k0)
a0800998:	8f520048 	lw	s2,72(k0)
a080099c:	8f53004c 	lw	s3,76(k0)
a08009a0:	8f540050 	lw	s4,80(k0)
a08009a4:	8f550054 	lw	s5,84(k0)
a08009a8:	8f560058 	lw	s6,88(k0)
a08009ac:	8f57005c 	lw	s7,92(k0)
a08009b0:	8f580060 	lw	t8,96(k0)
a08009b4:	8f590064 	lw	t9,100(k0)
a08009b8:	8f5c0070 	lw	gp,112(k0)
a08009bc:	8f5d0074 	lw	sp,116(k0)
a08009c0:	8f5e0078 	lw	s8,120(k0)
a08009c4:	8f5f007c 	lw	ra,124(k0)
a08009c8:	8f5b0080 	lw	k1,128(k0)
a08009cc:	409b6000 	mtc0	k1,c0_sr
a08009d0:	8f5b0084 	lw	k1,132(k0)
a08009d4:	409b9800 	mtc0	k1,c0_watchhi
a08009d8:	8f5b0088 	lw	k1,136(k0)
a08009dc:	409b9000 	mtc0	k1,c0_watchlo
a08009e0:	8f5b008c 	lw	k1,140(k0)
a08009e4:	409b4000 	mtc0	k1,c0_badvaddr
a08009e8:	8f5b0090 	lw	k1,144(k0)
a08009ec:	409b6800 	mtc0	k1,c0_cause
a08009f0:	8f5b0094 	lw	k1,148(k0)
a08009f4:	409b7000 	mtc0	k1,c0_epc
a08009f8:	00000000 	nop
a08009fc:	401a6000 	mfc0	k0,c0_sr
a0800a00:	00000000 	nop
a0800a04:	375a0003 	ori	k0,k0,0x3
a0800a08:	409a6000 	mtc0	k0,c0_sr
a0800a0c:	42000018 	eret
a0800a10:	00000000 	nop

a0800a14 <handle_other>:
a0800a14:	3c1aa080 	lui	k0,0xa080
a0800a18:	8f5a70cc 	lw	k0,28876(k0)
a0800a1c:	275a009c 	addiu	k0,k0,156
a0800a20:	8f400000 	lw	zero,0(k0)
a0800a24:	8f410004 	lw	at,4(k0)
a0800a28:	8f420008 	lw	v0,8(k0)
a0800a2c:	8f43000c 	lw	v1,12(k0)
a0800a30:	8f440010 	lw	a0,16(k0)
a0800a34:	8f450014 	lw	a1,20(k0)
a0800a38:	8f460018 	lw	a2,24(k0)
a0800a3c:	8f47001c 	lw	a3,28(k0)
a0800a40:	8f480020 	lw	t0,32(k0)
a0800a44:	8f490024 	lw	t1,36(k0)
a0800a48:	8f4a0028 	lw	t2,40(k0)
a0800a4c:	8f4b002c 	lw	t3,44(k0)
a0800a50:	8f4c0030 	lw	t4,48(k0)
a0800a54:	8f4d0034 	lw	t5,52(k0)
a0800a58:	8f4e0038 	lw	t6,56(k0)
a0800a5c:	8f4f003c 	lw	t7,60(k0)
a0800a60:	8f500040 	lw	s0,64(k0)
a0800a64:	8f510044 	lw	s1,68(k0)
a0800a68:	8f520048 	lw	s2,72(k0)
a0800a6c:	8f53004c 	lw	s3,76(k0)
a0800a70:	8f540050 	lw	s4,80(k0)
a0800a74:	8f550054 	lw	s5,84(k0)
a0800a78:	8f560058 	lw	s6,88(k0)
a0800a7c:	8f57005c 	lw	s7,92(k0)
a0800a80:	8f580060 	lw	t8,96(k0)
a0800a84:	8f590064 	lw	t9,100(k0)
a0800a88:	8f5c0070 	lw	gp,112(k0)
a0800a8c:	8f5d0074 	lw	sp,116(k0)
a0800a90:	8f5e0078 	lw	s8,120(k0)
a0800a94:	8f5f007c 	lw	ra,124(k0)
a0800a98:	8f5b0080 	lw	k1,128(k0)
a0800a9c:	409b6000 	mtc0	k1,c0_sr
a0800aa0:	8f5b0084 	lw	k1,132(k0)
a0800aa4:	409b9800 	mtc0	k1,c0_watchhi
a0800aa8:	8f5b0088 	lw	k1,136(k0)
a0800aac:	409b9000 	mtc0	k1,c0_watchlo
a0800ab0:	8f5b008c 	lw	k1,140(k0)
a0800ab4:	409b4000 	mtc0	k1,c0_badvaddr
a0800ab8:	8f5b0090 	lw	k1,144(k0)
a0800abc:	409b6800 	mtc0	k1,c0_cause
a0800ac0:	8f5b0094 	lw	k1,148(k0)
a0800ac4:	409b7000 	mtc0	k1,c0_epc
a0800ac8:	00000000 	nop
a0800acc:	401a6000 	mfc0	k0,c0_sr
a0800ad0:	00000000 	nop
a0800ad4:	375a0003 	ori	k0,k0,0x3
a0800ad8:	409a6000 	mtc0	k0,c0_sr
a0800adc:	42000018 	eret
	...

a0800af0 <invoke_syscall>:
a0800af0:	00801020 	add	v0,a0,zero
a0800af4:	00a02020 	add	a0,a1,zero
a0800af8:	00c02820 	add	a1,a2,zero
a0800afc:	00e03020 	add	a2,a3,zero
a0800b00:	0000000c 	syscall
a0800b04:	03e00008 	jr	ra
a0800b08:	00000000 	nop
a0800b0c:	00000000 	nop

a0800b10 <port_write_ch>:
a0800b10:	27bdffe0 	addiu	sp,sp,-32
a0800b14:	afbf001c 	sw	ra,28(sp)
a0800b18:	afbe0018 	sw	s8,24(sp)
a0800b1c:	03a0f021 	move	s8,sp
a0800b20:	00801021 	move	v0,a0
a0800b24:	a3c20020 	sb	v0,32(s8)
a0800b28:	3c028001 	lui	v0,0x8001
a0800b2c:	34421140 	ori	v0,v0,0x1140
a0800b30:	afc20010 	sw	v0,16(s8)
a0800b34:	83c20020 	lb	v0,32(s8)
a0800b38:	8fc30010 	lw	v1,16(s8)
a0800b3c:	00402021 	move	a0,v0
a0800b40:	0060f809 	jalr	v1
a0800b44:	00000000 	nop
a0800b48:	03c0e821 	move	sp,s8
a0800b4c:	8fbf001c 	lw	ra,28(sp)
a0800b50:	8fbe0018 	lw	s8,24(sp)
a0800b54:	27bd0020 	addiu	sp,sp,32
a0800b58:	03e00008 	jr	ra
a0800b5c:	00000000 	nop

a0800b60 <port_write>:
a0800b60:	27bdffe0 	addiu	sp,sp,-32
a0800b64:	afbf001c 	sw	ra,28(sp)
a0800b68:	afbe0018 	sw	s8,24(sp)
a0800b6c:	03a0f021 	move	s8,sp
a0800b70:	afc40020 	sw	a0,32(s8)
a0800b74:	3c028001 	lui	v0,0x8001
a0800b78:	34421100 	ori	v0,v0,0x1100
a0800b7c:	afc20010 	sw	v0,16(s8)
a0800b80:	8fc20010 	lw	v0,16(s8)
a0800b84:	8fc40020 	lw	a0,32(s8)
a0800b88:	0040f809 	jalr	v0
a0800b8c:	00000000 	nop
a0800b90:	03c0e821 	move	sp,s8
a0800b94:	8fbf001c 	lw	ra,28(sp)
a0800b98:	8fbe0018 	lw	s8,24(sp)
a0800b9c:	27bd0020 	addiu	sp,sp,32
a0800ba0:	03e00008 	jr	ra
a0800ba4:	00000000 	nop
	...

a0800bb0 <vt100_move_cursor>:
a0800bb0:	27bdffe8 	addiu	sp,sp,-24
a0800bb4:	afbf0014 	sw	ra,20(sp)
a0800bb8:	afbe0010 	sw	s8,16(sp)
a0800bbc:	03a0f021 	move	s8,sp
a0800bc0:	afc40018 	sw	a0,24(s8)
a0800bc4:	afc5001c 	sw	a1,28(s8)
a0800bc8:	3c02a080 	lui	v0,0xa080
a0800bcc:	24446ad0 	addiu	a0,v0,27344
a0800bd0:	2405001b 	li	a1,27
a0800bd4:	8fc6001c 	lw	a2,28(s8)
a0800bd8:	8fc70018 	lw	a3,24(s8)
a0800bdc:	0c201719 	jal	a0805c64 <printk>
a0800be0:	00000000 	nop
a0800be4:	03c0e821 	move	sp,s8
a0800be8:	8fbf0014 	lw	ra,20(sp)
a0800bec:	8fbe0010 	lw	s8,16(sp)
a0800bf0:	27bd0018 	addiu	sp,sp,24
a0800bf4:	03e00008 	jr	ra
a0800bf8:	00000000 	nop

a0800bfc <vt100_clear>:
a0800bfc:	27bdffe8 	addiu	sp,sp,-24
a0800c00:	afbf0014 	sw	ra,20(sp)
a0800c04:	afbe0010 	sw	s8,16(sp)
a0800c08:	03a0f021 	move	s8,sp
a0800c0c:	3c02a080 	lui	v0,0xa080
a0800c10:	24446adc 	addiu	a0,v0,27356
a0800c14:	2405001b 	li	a1,27
a0800c18:	0c201719 	jal	a0805c64 <printk>
a0800c1c:	00000000 	nop
a0800c20:	03c0e821 	move	sp,s8
a0800c24:	8fbf0014 	lw	ra,20(sp)
a0800c28:	8fbe0010 	lw	s8,16(sp)
a0800c2c:	27bd0018 	addiu	sp,sp,24
a0800c30:	03e00008 	jr	ra
a0800c34:	00000000 	nop

a0800c38 <vt100_hidden_cursor>:
a0800c38:	27bdffe8 	addiu	sp,sp,-24
a0800c3c:	afbf0014 	sw	ra,20(sp)
a0800c40:	afbe0010 	sw	s8,16(sp)
a0800c44:	03a0f021 	move	s8,sp
a0800c48:	3c02a080 	lui	v0,0xa080
a0800c4c:	24446ae4 	addiu	a0,v0,27364
a0800c50:	2405001b 	li	a1,27
a0800c54:	0c201719 	jal	a0805c64 <printk>
a0800c58:	00000000 	nop
a0800c5c:	03c0e821 	move	sp,s8
a0800c60:	8fbf0014 	lw	ra,20(sp)
a0800c64:	8fbe0010 	lw	s8,16(sp)
a0800c68:	27bd0018 	addiu	sp,sp,24
a0800c6c:	03e00008 	jr	ra
a0800c70:	00000000 	nop

a0800c74 <screen_scroll>:
a0800c74:	27bdfff0 	addiu	sp,sp,-16
a0800c78:	afbe000c 	sw	s8,12(sp)
a0800c7c:	03a0f021 	move	s8,sp
a0800c80:	afc40010 	sw	a0,16(s8)
a0800c84:	afc50014 	sw	a1,20(s8)
a0800c88:	8fc20010 	lw	v0,16(s8)
a0800c8c:	afc20004 	sw	v0,4(s8)
a0800c90:	0820033d 	j	a0800cf4 <screen_scroll+0x80>
a0800c94:	00000000 	nop
a0800c98:	afc00000 	sw	zero,0(s8)
a0800c9c:	08200336 	j	a0800cd8 <screen_scroll+0x64>
a0800ca0:	00000000 	nop
a0800ca4:	8fc20004 	lw	v0,4(s8)
a0800ca8:	00021900 	sll	v1,v0,0x4
a0800cac:	00031080 	sll	v0,v1,0x2
a0800cb0:	00621821 	addu	v1,v1,v0
a0800cb4:	8fc20000 	lw	v0,0(s8)
a0800cb8:	00621821 	addu	v1,v1,v0
a0800cbc:	3c02a080 	lui	v0,0xa080
a0800cc0:	24427a40 	addiu	v0,v0,31296
a0800cc4:	00621021 	addu	v0,v1,v0
a0800cc8:	a0400000 	sb	zero,0(v0)
a0800ccc:	8fc20000 	lw	v0,0(s8)
a0800cd0:	24420001 	addiu	v0,v0,1
a0800cd4:	afc20000 	sw	v0,0(s8)
a0800cd8:	8fc20000 	lw	v0,0(s8)
a0800cdc:	28420050 	slti	v0,v0,80
a0800ce0:	1440fff0 	bnez	v0,a0800ca4 <screen_scroll+0x30>
a0800ce4:	00000000 	nop
a0800ce8:	8fc20004 	lw	v0,4(s8)
a0800cec:	24420001 	addiu	v0,v0,1
a0800cf0:	afc20004 	sw	v0,4(s8)
a0800cf4:	8fc20004 	lw	v0,4(s8)
a0800cf8:	8fc30014 	lw	v1,20(s8)
a0800cfc:	0062102a 	slt	v0,v1,v0
a0800d00:	1040ffe5 	beqz	v0,a0800c98 <screen_scroll+0x24>
a0800d04:	00000000 	nop
a0800d08:	8fc20010 	lw	v0,16(s8)
a0800d0c:	afc20004 	sw	v0,4(s8)
a0800d10:	08200379 	j	a0800de4 <screen_scroll+0x170>
a0800d14:	00000000 	nop
a0800d18:	afc00000 	sw	zero,0(s8)
a0800d1c:	08200372 	j	a0800dc8 <screen_scroll+0x154>
a0800d20:	00000000 	nop
a0800d24:	8fc30004 	lw	v1,4(s8)
a0800d28:	8fc20014 	lw	v0,20(s8)
a0800d2c:	1462000e 	bne	v1,v0,a0800d68 <screen_scroll+0xf4>
a0800d30:	00000000 	nop
a0800d34:	8fc20004 	lw	v0,4(s8)
a0800d38:	00021900 	sll	v1,v0,0x4
a0800d3c:	00031080 	sll	v0,v1,0x2
a0800d40:	00621821 	addu	v1,v1,v0
a0800d44:	8fc20000 	lw	v0,0(s8)
a0800d48:	00621821 	addu	v1,v1,v0
a0800d4c:	3c02a080 	lui	v0,0xa080
a0800d50:	244270e0 	addiu	v0,v0,28896
a0800d54:	00621821 	addu	v1,v1,v0
a0800d58:	24020020 	li	v0,32
a0800d5c:	a0620000 	sb	v0,0(v1)
a0800d60:	0820036f 	j	a0800dbc <screen_scroll+0x148>
a0800d64:	00000000 	nop
a0800d68:	8fc20004 	lw	v0,4(s8)
a0800d6c:	00021900 	sll	v1,v0,0x4
a0800d70:	00031080 	sll	v0,v1,0x2
a0800d74:	00621821 	addu	v1,v1,v0
a0800d78:	8fc20000 	lw	v0,0(s8)
a0800d7c:	00622021 	addu	a0,v1,v0
a0800d80:	8fc20004 	lw	v0,4(s8)
a0800d84:	24420001 	addiu	v0,v0,1
a0800d88:	00021900 	sll	v1,v0,0x4
a0800d8c:	00031080 	sll	v0,v1,0x2
a0800d90:	00621821 	addu	v1,v1,v0
a0800d94:	8fc20000 	lw	v0,0(s8)
a0800d98:	00621821 	addu	v1,v1,v0
a0800d9c:	3c02a080 	lui	v0,0xa080
a0800da0:	244270e0 	addiu	v0,v0,28896
a0800da4:	00621021 	addu	v0,v1,v0
a0800da8:	80430000 	lb	v1,0(v0)
a0800dac:	3c02a080 	lui	v0,0xa080
a0800db0:	244270e0 	addiu	v0,v0,28896
a0800db4:	00821021 	addu	v0,a0,v0
a0800db8:	a0430000 	sb	v1,0(v0)
a0800dbc:	8fc20000 	lw	v0,0(s8)
a0800dc0:	24420001 	addiu	v0,v0,1
a0800dc4:	afc20000 	sw	v0,0(s8)
a0800dc8:	8fc20000 	lw	v0,0(s8)
a0800dcc:	28420050 	slti	v0,v0,80
a0800dd0:	1440ffd4 	bnez	v0,a0800d24 <screen_scroll+0xb0>
a0800dd4:	00000000 	nop
a0800dd8:	8fc20004 	lw	v0,4(s8)
a0800ddc:	24420001 	addiu	v0,v0,1
a0800de0:	afc20004 	sw	v0,4(s8)
a0800de4:	8fc20004 	lw	v0,4(s8)
a0800de8:	8fc30014 	lw	v1,20(s8)
a0800dec:	0062102a 	slt	v0,v1,v0
a0800df0:	1040ffc9 	beqz	v0,a0800d18 <screen_scroll+0xa4>
a0800df4:	00000000 	nop
a0800df8:	03c0e821 	move	sp,s8
a0800dfc:	8fbe000c 	lw	s8,12(sp)
a0800e00:	27bd0010 	addiu	sp,sp,16
a0800e04:	03e00008 	jr	ra
a0800e08:	00000000 	nop

a0800e0c <screen_write_ch>:
a0800e0c:	27bdffe8 	addiu	sp,sp,-24
a0800e10:	afbf0014 	sw	ra,20(sp)
a0800e14:	afbe0010 	sw	s8,16(sp)
a0800e18:	03a0f021 	move	s8,sp
a0800e1c:	00801021 	move	v0,a0
a0800e20:	a3c20018 	sb	v0,24(s8)
a0800e24:	83c30018 	lb	v1,24(s8)
a0800e28:	2402000a 	li	v0,10
a0800e2c:	1462000a 	bne	v1,v0,a0800e58 <screen_write_ch+0x4c>
a0800e30:	00000000 	nop
a0800e34:	3c02a080 	lui	v0,0xa080
a0800e38:	ac407090 	sw	zero,28816(v0)
a0800e3c:	3c02a080 	lui	v0,0xa080
a0800e40:	8c427094 	lw	v0,28820(v0)
a0800e44:	24430001 	addiu	v1,v0,1
a0800e48:	3c02a080 	lui	v0,0xa080
a0800e4c:	ac437094 	sw	v1,28820(v0)
a0800e50:	082003d1 	j	a0800f44 <screen_write_ch+0x138>
a0800e54:	00000000 	nop
a0800e58:	83c30018 	lb	v1,24(s8)
a0800e5c:	24020008 	li	v0,8
a0800e60:	14620019 	bne	v1,v0,a0800ec8 <screen_write_ch+0xbc>
a0800e64:	00000000 	nop
a0800e68:	3c02a080 	lui	v0,0xa080
a0800e6c:	8c427090 	lw	v0,28816(v0)
a0800e70:	18400034 	blez	v0,a0800f44 <screen_write_ch+0x138>
a0800e74:	00000000 	nop
a0800e78:	3c02a080 	lui	v0,0xa080
a0800e7c:	8c427090 	lw	v0,28816(v0)
a0800e80:	2443ffff 	addiu	v1,v0,-1
a0800e84:	3c02a080 	lui	v0,0xa080
a0800e88:	ac437090 	sw	v1,28816(v0)
a0800e8c:	3c02a080 	lui	v0,0xa080
a0800e90:	8c427094 	lw	v0,28820(v0)
a0800e94:	00021900 	sll	v1,v0,0x4
a0800e98:	00031080 	sll	v0,v1,0x2
a0800e9c:	00621821 	addu	v1,v1,v0
a0800ea0:	3c02a080 	lui	v0,0xa080
a0800ea4:	8c427090 	lw	v0,28816(v0)
a0800ea8:	00621821 	addu	v1,v1,v0
a0800eac:	3c02a080 	lui	v0,0xa080
a0800eb0:	244270e0 	addiu	v0,v0,28896
a0800eb4:	00621821 	addu	v1,v1,v0
a0800eb8:	24020020 	li	v0,32
a0800ebc:	a0620000 	sb	v0,0(v1)
a0800ec0:	082003d1 	j	a0800f44 <screen_write_ch+0x138>
a0800ec4:	00000000 	nop
a0800ec8:	83c30018 	lb	v1,24(s8)
a0800ecc:	2402000d 	li	v0,13
a0800ed0:	1462000a 	bne	v1,v0,a0800efc <screen_write_ch+0xf0>
a0800ed4:	00000000 	nop
a0800ed8:	3c02a080 	lui	v0,0xa080
a0800edc:	ac407090 	sw	zero,28816(v0)
a0800ee0:	3c02a080 	lui	v0,0xa080
a0800ee4:	8c427094 	lw	v0,28820(v0)
a0800ee8:	24430001 	addiu	v1,v0,1
a0800eec:	3c02a080 	lui	v0,0xa080
a0800ef0:	ac437094 	sw	v1,28820(v0)
a0800ef4:	082003d1 	j	a0800f44 <screen_write_ch+0x138>
a0800ef8:	00000000 	nop
a0800efc:	3c02a080 	lui	v0,0xa080
a0800f00:	8c427094 	lw	v0,28820(v0)
a0800f04:	00021900 	sll	v1,v0,0x4
a0800f08:	00031080 	sll	v0,v1,0x2
a0800f0c:	00621821 	addu	v1,v1,v0
a0800f10:	3c02a080 	lui	v0,0xa080
a0800f14:	8c427090 	lw	v0,28816(v0)
a0800f18:	00621821 	addu	v1,v1,v0
a0800f1c:	3c02a080 	lui	v0,0xa080
a0800f20:	244270e0 	addiu	v0,v0,28896
a0800f24:	00621821 	addu	v1,v1,v0
a0800f28:	93c20018 	lbu	v0,24(s8)
a0800f2c:	a0620000 	sb	v0,0(v1)
a0800f30:	3c02a080 	lui	v0,0xa080
a0800f34:	8c427090 	lw	v0,28816(v0)
a0800f38:	24430001 	addiu	v1,v0,1
a0800f3c:	3c02a080 	lui	v0,0xa080
a0800f40:	ac437090 	sw	v1,28816(v0)
a0800f44:	3c02a080 	lui	v0,0xa080
a0800f48:	8c427090 	lw	v0,28816(v0)
a0800f4c:	04410003 	bgez	v0,a0800f5c <screen_write_ch+0x150>
a0800f50:	00000000 	nop
a0800f54:	3c02a080 	lui	v0,0xa080
a0800f58:	ac407090 	sw	zero,28816(v0)
a0800f5c:	3c02a080 	lui	v0,0xa080
a0800f60:	8c427090 	lw	v0,28816(v0)
a0800f64:	28420050 	slti	v0,v0,80
a0800f68:	14400008 	bnez	v0,a0800f8c <screen_write_ch+0x180>
a0800f6c:	00000000 	nop
a0800f70:	3c02a080 	lui	v0,0xa080
a0800f74:	8c427094 	lw	v0,28820(v0)
a0800f78:	24430001 	addiu	v1,v0,1
a0800f7c:	3c02a080 	lui	v0,0xa080
a0800f80:	ac437094 	sw	v1,28820(v0)
a0800f84:	3c02a080 	lui	v0,0xa080
a0800f88:	ac407090 	sw	zero,28816(v0)
a0800f8c:	3c02a080 	lui	v0,0xa080
a0800f90:	8c427094 	lw	v0,28820(v0)
a0800f94:	04410003 	bgez	v0,a0800fa4 <screen_write_ch+0x198>
a0800f98:	00000000 	nop
a0800f9c:	3c02a080 	lui	v0,0xa080
a0800fa0:	ac407094 	sw	zero,28820(v0)
a0800fa4:	3c02a080 	lui	v0,0xa080
a0800fa8:	8c427094 	lw	v0,28820(v0)
a0800fac:	2842001e 	slti	v0,v0,30
a0800fb0:	1440000a 	bnez	v0,a0800fdc <screen_write_ch+0x1d0>
a0800fb4:	00000000 	nop
a0800fb8:	24040010 	li	a0,16
a0800fbc:	2405001d 	li	a1,29
a0800fc0:	0c20031d 	jal	a0800c74 <screen_scroll>
a0800fc4:	00000000 	nop
a0800fc8:	3c02a080 	lui	v0,0xa080
a0800fcc:	ac407090 	sw	zero,28816(v0)
a0800fd0:	3c03a080 	lui	v1,0xa080
a0800fd4:	2402001d 	li	v0,29
a0800fd8:	ac627094 	sw	v0,28820(v1)
a0800fdc:	03c0e821 	move	sp,s8
a0800fe0:	8fbf0014 	lw	ra,20(sp)
a0800fe4:	8fbe0010 	lw	s8,16(sp)
a0800fe8:	27bd0018 	addiu	sp,sp,24
a0800fec:	03e00008 	jr	ra
a0800ff0:	00000000 	nop

a0800ff4 <init_screen>:
a0800ff4:	27bdffe8 	addiu	sp,sp,-24
a0800ff8:	afbf0014 	sw	ra,20(sp)
a0800ffc:	afbe0010 	sw	s8,16(sp)
a0801000:	03a0f021 	move	s8,sp
a0801004:	0c20030e 	jal	a0800c38 <vt100_hidden_cursor>
a0801008:	00000000 	nop
a080100c:	0c2002ff 	jal	a0800bfc <vt100_clear>
a0801010:	00000000 	nop
a0801014:	00002021 	move	a0,zero
a0801018:	2405001d 	li	a1,29
a080101c:	0c20040f 	jal	a080103c <screen_clear>
a0801020:	00000000 	nop
a0801024:	03c0e821 	move	sp,s8
a0801028:	8fbf0014 	lw	ra,20(sp)
a080102c:	8fbe0010 	lw	s8,16(sp)
a0801030:	27bd0018 	addiu	sp,sp,24
a0801034:	03e00008 	jr	ra
a0801038:	00000000 	nop

a080103c <screen_clear>:
a080103c:	27bdffe0 	addiu	sp,sp,-32
a0801040:	afbf001c 	sw	ra,28(sp)
a0801044:	afbe0018 	sw	s8,24(sp)
a0801048:	03a0f021 	move	s8,sp
a080104c:	afc40020 	sw	a0,32(s8)
a0801050:	afc50024 	sw	a1,36(s8)
a0801054:	8fc20020 	lw	v0,32(s8)
a0801058:	afc20014 	sw	v0,20(s8)
a080105c:	0820043b 	j	a08010ec <screen_clear+0xb0>
a0801060:	00000000 	nop
a0801064:	afc00010 	sw	zero,16(s8)
a0801068:	08200434 	j	a08010d0 <screen_clear+0x94>
a080106c:	00000000 	nop
a0801070:	8fc20014 	lw	v0,20(s8)
a0801074:	00021900 	sll	v1,v0,0x4
a0801078:	00031080 	sll	v0,v1,0x2
a080107c:	00621821 	addu	v1,v1,v0
a0801080:	8fc20010 	lw	v0,16(s8)
a0801084:	00621821 	addu	v1,v1,v0
a0801088:	3c02a080 	lui	v0,0xa080
a080108c:	244270e0 	addiu	v0,v0,28896
a0801090:	00621821 	addu	v1,v1,v0
a0801094:	24020020 	li	v0,32
a0801098:	a0620000 	sb	v0,0(v1)
a080109c:	8fc20014 	lw	v0,20(s8)
a08010a0:	00021900 	sll	v1,v0,0x4
a08010a4:	00031080 	sll	v0,v1,0x2
a08010a8:	00621821 	addu	v1,v1,v0
a08010ac:	8fc20010 	lw	v0,16(s8)
a08010b0:	00621821 	addu	v1,v1,v0
a08010b4:	3c02a080 	lui	v0,0xa080
a08010b8:	24427a40 	addiu	v0,v0,31296
a08010bc:	00621021 	addu	v0,v1,v0
a08010c0:	a0400000 	sb	zero,0(v0)
a08010c4:	8fc20010 	lw	v0,16(s8)
a08010c8:	24420001 	addiu	v0,v0,1
a08010cc:	afc20010 	sw	v0,16(s8)
a08010d0:	8fc20010 	lw	v0,16(s8)
a08010d4:	28420050 	slti	v0,v0,80
a08010d8:	1440ffe5 	bnez	v0,a0801070 <screen_clear+0x34>
a08010dc:	00000000 	nop
a08010e0:	8fc20014 	lw	v0,20(s8)
a08010e4:	24420001 	addiu	v0,v0,1
a08010e8:	afc20014 	sw	v0,20(s8)
a08010ec:	8fc20014 	lw	v0,20(s8)
a08010f0:	8fc30024 	lw	v1,36(s8)
a08010f4:	0043102a 	slt	v0,v0,v1
a08010f8:	1440ffda 	bnez	v0,a0801064 <screen_clear+0x28>
a08010fc:	00000000 	nop
a0801100:	3c02a080 	lui	v0,0xa080
a0801104:	ac407090 	sw	zero,28816(v0)
a0801108:	3c02a080 	lui	v0,0xa080
a080110c:	ac407094 	sw	zero,28820(v0)
a0801110:	0c20047e 	jal	a08011f8 <screen_reflush>
a0801114:	00000000 	nop
a0801118:	03c0e821 	move	sp,s8
a080111c:	8fbf001c 	lw	ra,28(sp)
a0801120:	8fbe0018 	lw	s8,24(sp)
a0801124:	27bd0020 	addiu	sp,sp,32
a0801128:	03e00008 	jr	ra
a080112c:	00000000 	nop

a0801130 <screen_move_cursor>:
a0801130:	27bdfff8 	addiu	sp,sp,-8
a0801134:	afbe0004 	sw	s8,4(sp)
a0801138:	03a0f021 	move	s8,sp
a080113c:	afc40008 	sw	a0,8(s8)
a0801140:	afc5000c 	sw	a1,12(s8)
a0801144:	3c03a080 	lui	v1,0xa080
a0801148:	8fc20008 	lw	v0,8(s8)
a080114c:	ac627090 	sw	v0,28816(v1)
a0801150:	3c03a080 	lui	v1,0xa080
a0801154:	8fc2000c 	lw	v0,12(s8)
a0801158:	ac627094 	sw	v0,28820(v1)
a080115c:	03c0e821 	move	sp,s8
a0801160:	8fbe0004 	lw	s8,4(sp)
a0801164:	27bd0008 	addiu	sp,sp,8
a0801168:	03e00008 	jr	ra
a080116c:	00000000 	nop

a0801170 <screen_write>:
a0801170:	27bdffe0 	addiu	sp,sp,-32
a0801174:	afbf001c 	sw	ra,28(sp)
a0801178:	afbe0018 	sw	s8,24(sp)
a080117c:	03a0f021 	move	s8,sp
a0801180:	afc40020 	sw	a0,32(s8)
a0801184:	afc00014 	sw	zero,20(s8)
a0801188:	8fc40020 	lw	a0,32(s8)
a080118c:	0c201358 	jal	a0804d60 <strlen>
a0801190:	00000000 	nop
a0801194:	afc20010 	sw	v0,16(s8)
a0801198:	afc00014 	sw	zero,20(s8)
a080119c:	08200473 	j	a08011cc <screen_write+0x5c>
a08011a0:	00000000 	nop
a08011a4:	8fc30014 	lw	v1,20(s8)
a08011a8:	8fc20020 	lw	v0,32(s8)
a08011ac:	00431021 	addu	v0,v0,v1
a08011b0:	80420000 	lb	v0,0(v0)
a08011b4:	00402021 	move	a0,v0
a08011b8:	0c200383 	jal	a0800e0c <screen_write_ch>
a08011bc:	00000000 	nop
a08011c0:	8fc20014 	lw	v0,20(s8)
a08011c4:	24420001 	addiu	v0,v0,1
a08011c8:	afc20014 	sw	v0,20(s8)
a08011cc:	8fc20014 	lw	v0,20(s8)
a08011d0:	8fc30010 	lw	v1,16(s8)
a08011d4:	0043102a 	slt	v0,v0,v1
a08011d8:	1440fff2 	bnez	v0,a08011a4 <screen_write+0x34>
a08011dc:	00000000 	nop
a08011e0:	03c0e821 	move	sp,s8
a08011e4:	8fbf001c 	lw	ra,28(sp)
a08011e8:	8fbe0018 	lw	s8,24(sp)
a08011ec:	27bd0020 	addiu	sp,sp,32
a08011f0:	03e00008 	jr	ra
a08011f4:	00000000 	nop

a08011f8 <screen_reflush>:
a08011f8:	27bdffe0 	addiu	sp,sp,-32
a08011fc:	afbf001c 	sw	ra,28(sp)
a0801200:	afbe0018 	sw	s8,24(sp)
a0801204:	03a0f021 	move	s8,sp
a0801208:	afc00014 	sw	zero,20(s8)
a080120c:	082004d1 	j	a0801344 <screen_reflush+0x14c>
a0801210:	00000000 	nop
a0801214:	afc00010 	sw	zero,16(s8)
a0801218:	082004ca 	j	a0801328 <screen_reflush+0x130>
a080121c:	00000000 	nop
a0801220:	8fc20014 	lw	v0,20(s8)
a0801224:	00021900 	sll	v1,v0,0x4
a0801228:	00031080 	sll	v0,v1,0x2
a080122c:	00621821 	addu	v1,v1,v0
a0801230:	8fc20010 	lw	v0,16(s8)
a0801234:	00621821 	addu	v1,v1,v0
a0801238:	3c02a080 	lui	v0,0xa080
a080123c:	244270e0 	addiu	v0,v0,28896
a0801240:	00621021 	addu	v0,v1,v0
a0801244:	80440000 	lb	a0,0(v0)
a0801248:	8fc20014 	lw	v0,20(s8)
a080124c:	00021900 	sll	v1,v0,0x4
a0801250:	00031080 	sll	v0,v1,0x2
a0801254:	00621821 	addu	v1,v1,v0
a0801258:	8fc20010 	lw	v0,16(s8)
a080125c:	00621821 	addu	v1,v1,v0
a0801260:	3c02a080 	lui	v0,0xa080
a0801264:	24427a40 	addiu	v0,v0,31296
a0801268:	00621021 	addu	v0,v1,v0
a080126c:	80420000 	lb	v0,0(v0)
a0801270:	1082002a 	beq	a0,v0,a080131c <screen_reflush+0x124>
a0801274:	00000000 	nop
a0801278:	8fc20010 	lw	v0,16(s8)
a080127c:	24430001 	addiu	v1,v0,1
a0801280:	8fc20014 	lw	v0,20(s8)
a0801284:	24420001 	addiu	v0,v0,1
a0801288:	00602021 	move	a0,v1
a080128c:	00402821 	move	a1,v0
a0801290:	0c2002ec 	jal	a0800bb0 <vt100_move_cursor>
a0801294:	00000000 	nop
a0801298:	8fc20014 	lw	v0,20(s8)
a080129c:	00021900 	sll	v1,v0,0x4
a08012a0:	00031080 	sll	v0,v1,0x2
a08012a4:	00621821 	addu	v1,v1,v0
a08012a8:	8fc20010 	lw	v0,16(s8)
a08012ac:	00621821 	addu	v1,v1,v0
a08012b0:	3c02a080 	lui	v0,0xa080
a08012b4:	244270e0 	addiu	v0,v0,28896
a08012b8:	00621021 	addu	v0,v1,v0
a08012bc:	80420000 	lb	v0,0(v0)
a08012c0:	00402021 	move	a0,v0
a08012c4:	0c2002c4 	jal	a0800b10 <port_write_ch>
a08012c8:	00000000 	nop
a08012cc:	8fc20014 	lw	v0,20(s8)
a08012d0:	00021900 	sll	v1,v0,0x4
a08012d4:	00031080 	sll	v0,v1,0x2
a08012d8:	00621821 	addu	v1,v1,v0
a08012dc:	8fc20010 	lw	v0,16(s8)
a08012e0:	00622021 	addu	a0,v1,v0
a08012e4:	8fc20014 	lw	v0,20(s8)
a08012e8:	00021900 	sll	v1,v0,0x4
a08012ec:	00031080 	sll	v0,v1,0x2
a08012f0:	00621821 	addu	v1,v1,v0
a08012f4:	8fc20010 	lw	v0,16(s8)
a08012f8:	00621821 	addu	v1,v1,v0
a08012fc:	3c02a080 	lui	v0,0xa080
a0801300:	244270e0 	addiu	v0,v0,28896
a0801304:	00621021 	addu	v0,v1,v0
a0801308:	80430000 	lb	v1,0(v0)
a080130c:	3c02a080 	lui	v0,0xa080
a0801310:	24427a40 	addiu	v0,v0,31296
a0801314:	00821021 	addu	v0,a0,v0
a0801318:	a0430000 	sb	v1,0(v0)
a080131c:	8fc20010 	lw	v0,16(s8)
a0801320:	24420001 	addiu	v0,v0,1
a0801324:	afc20010 	sw	v0,16(s8)
a0801328:	8fc20010 	lw	v0,16(s8)
a080132c:	28420050 	slti	v0,v0,80
a0801330:	1440ffbb 	bnez	v0,a0801220 <screen_reflush+0x28>
a0801334:	00000000 	nop
a0801338:	8fc20014 	lw	v0,20(s8)
a080133c:	24420001 	addiu	v0,v0,1
a0801340:	afc20014 	sw	v0,20(s8)
a0801344:	8fc20014 	lw	v0,20(s8)
a0801348:	2842001e 	slti	v0,v0,30
a080134c:	1440ffb1 	bnez	v0,a0801214 <screen_reflush+0x1c>
a0801350:	00000000 	nop
a0801354:	3c02a080 	lui	v0,0xa080
a0801358:	8c437090 	lw	v1,28816(v0)
a080135c:	3c02a080 	lui	v0,0xa080
a0801360:	8c427094 	lw	v0,28820(v0)
a0801364:	00602021 	move	a0,v1
a0801368:	00402821 	move	a1,v0
a080136c:	0c2002ec 	jal	a0800bb0 <vt100_move_cursor>
a0801370:	00000000 	nop
a0801374:	03c0e821 	move	sp,s8
a0801378:	8fbf001c 	lw	ra,28(sp)
a080137c:	8fbe0018 	lw	s8,24(sp)
a0801380:	27bd0020 	addiu	sp,sp,32
a0801384:	03e00008 	jr	ra
a0801388:	00000000 	nop
a080138c:	00000000 	nop

a0801390 <init_page_table>:
a0801390:	27bdffe8 	addiu	sp,sp,-24
a0801394:	afbf0014 	sw	ra,20(sp)
a0801398:	afbe0010 	sw	s8,16(sp)
a080139c:	03a0f021 	move	s8,sp
a08013a0:	00002021 	move	a0,zero
a08013a4:	3c050080 	lui	a1,0x80
a08013a8:	0c2008b0 	jal	a08022c0 <free_physical_scope>
a08013ac:	00000000 	nop
a08013b0:	3c0400f0 	lui	a0,0xf0
a08013b4:	3c0201ff 	lui	v0,0x1ff
a08013b8:	3445ffff 	ori	a1,v0,0xffff
a08013bc:	0c2008b0 	jal	a08022c0 <free_physical_scope>
a08013c0:	00000000 	nop
a08013c4:	0c20092a 	jal	a08024a8 <fill_static_page_table>
a08013c8:	00000000 	nop
a08013cc:	0c200950 	jal	a0802540 <init_static_TLB>
a08013d0:	00000000 	nop
a08013d4:	03c0e821 	move	sp,s8
a08013d8:	8fbf0014 	lw	ra,20(sp)
a08013dc:	8fbe0010 	lw	s8,16(sp)
a08013e0:	27bd0018 	addiu	sp,sp,24
a08013e4:	03e00008 	jr	ra
a08013e8:	00000000 	nop

a08013ec <init_shell>:
a08013ec:	27bdffe8 	addiu	sp,sp,-24
a08013f0:	afbf0014 	sw	ra,20(sp)
a08013f4:	afbe0010 	sw	s8,16(sp)
a08013f8:	03a0f021 	move	s8,sp
a08013fc:	3c02a081 	lui	v0,0xa081
a0801400:	2443c4e4 	addiu	v1,v0,-15132
a0801404:	24020001 	li	v0,1
a0801408:	ac620004 	sw	v0,4(v1)
a080140c:	3c02a080 	lui	v0,0xa080
a0801410:	8c436f50 	lw	v1,28496(v0)
a0801414:	3c02a082 	lui	v0,0xa082
a0801418:	244289e0 	addiu	v0,v0,-30240
a080141c:	ac4302b8 	sw	v1,696(v0)
a0801420:	24630001 	addiu	v1,v1,1
a0801424:	3c02a080 	lui	v0,0xa080
a0801428:	ac436f50 	sw	v1,28496(v0)
a080142c:	3c02a082 	lui	v0,0xa082
a0801430:	244389e0 	addiu	v1,v0,-30240
a0801434:	24020002 	li	v0,2
a0801438:	ac6202bc 	sw	v0,700(v1)
a080143c:	3c02a082 	lui	v0,0xa082
a0801440:	244389e0 	addiu	v1,v0,-30240
a0801444:	24020002 	li	v0,2
a0801448:	ac6202c0 	sw	v0,704(v1)
a080144c:	3c02a082 	lui	v0,0xa082
a0801450:	244289e0 	addiu	v0,v0,-30240
a0801454:	ac4002b0 	sw	zero,688(v0)
a0801458:	3c02a082 	lui	v0,0xa082
a080145c:	244289e0 	addiu	v0,v0,-30240
a0801460:	ac4002b4 	sw	zero,692(v0)
a0801464:	3c02a080 	lui	v0,0xa080
a0801468:	24430768 	addiu	v1,v0,1896
a080146c:	3c02a082 	lui	v0,0xa082
a0801470:	244289e0 	addiu	v0,v0,-30240
a0801474:	ac4301ec 	sw	v1,492(v0)
a0801478:	3c02a080 	lui	v0,0xa080
a080147c:	244362bc 	addiu	v1,v0,25276
a0801480:	3c02a082 	lui	v0,0xa082
a0801484:	244289e0 	addiu	v0,v0,-30240
a0801488:	ac430288 	sw	v1,648(v0)
a080148c:	3c02a080 	lui	v0,0xa080
a0801490:	244362bc 	addiu	v1,v0,25276
a0801494:	3c02a082 	lui	v0,0xa082
a0801498:	244289e0 	addiu	v0,v0,-30240
a080149c:	ac430204 	sw	v1,516(v0)
a08014a0:	3c02a080 	lui	v0,0xa080
a08014a4:	244362bc 	addiu	v1,v0,25276
a08014a8:	3c02a082 	lui	v0,0xa082
a08014ac:	244289e0 	addiu	v0,v0,-30240
a08014b0:	ac4302a0 	sw	v1,672(v0)
a08014b4:	3c02a082 	lui	v0,0xa082
a08014b8:	244389e0 	addiu	v1,v0,-30240
a08014bc:	3c021000 	lui	v0,0x1000
a08014c0:	34428003 	ori	v0,v0,0x8003
a08014c4:	ac6201f0 	sw	v0,496(v1)
a08014c8:	3c02a082 	lui	v0,0xa082
a08014cc:	244389e0 	addiu	v1,v0,-30240
a08014d0:	3c021000 	lui	v0,0x1000
a08014d4:	34428003 	ori	v0,v0,0x8003
a08014d8:	ac62028c 	sw	v0,652(v1)
a08014dc:	3c02a082 	lui	v0,0xa082
a08014e0:	244289e0 	addiu	v0,v0,-30240
a08014e4:	8c4302a8 	lw	v1,680(v0)
a08014e8:	3c02a082 	lui	v0,0xa082
a08014ec:	244289e0 	addiu	v0,v0,-30240
a08014f0:	ac4301e4 	sw	v1,484(v0)
a08014f4:	3c02a082 	lui	v0,0xa082
a08014f8:	244289e0 	addiu	v0,v0,-30240
a08014fc:	8c4302ac 	lw	v1,684(v0)
a0801500:	3c02a082 	lui	v0,0xa082
a0801504:	244289e0 	addiu	v0,v0,-30240
a0801508:	ac430280 	sw	v1,640(v0)
a080150c:	3c02a082 	lui	v0,0xa082
a0801510:	244389e0 	addiu	v1,v0,-30240
a0801514:	24020001 	li	v0,1
a0801518:	ac6202cc 	sw	v0,716(v1)
a080151c:	3c02a082 	lui	v0,0xa082
a0801520:	24448b50 	addiu	a0,v0,-29872
a0801524:	0c200f33 	jal	a0803ccc <priority_queue_push>
a0801528:	00000000 	nop
a080152c:	03c0e821 	move	sp,s8
a0801530:	8fbf0014 	lw	ra,20(sp)
a0801534:	8fbe0010 	lw	s8,16(sp)
a0801538:	27bd0018 	addiu	sp,sp,24
a080153c:	03e00008 	jr	ra
a0801540:	00000000 	nop

a0801544 <init_pcb>:
a0801544:	27bdffe0 	addiu	sp,sp,-32
a0801548:	afbf001c 	sw	ra,28(sp)
a080154c:	afbe0018 	sw	s8,24(sp)
a0801550:	03a0f021 	move	s8,sp
a0801554:	afc00010 	sw	zero,16(s8)
a0801558:	08200563 	j	a080158c <init_pcb+0x48>
a080155c:	00000000 	nop
a0801560:	8fc20010 	lw	v0,16(s8)
a0801564:	000218c0 	sll	v1,v0,0x3
a0801568:	3c02a081 	lui	v0,0xa081
a080156c:	2442c538 	addiu	v0,v0,-15048
a0801570:	00621021 	addu	v0,v1,v0
a0801574:	00402021 	move	a0,v0
a0801578:	0c200ebc 	jal	a0803af0 <queue_init>
a080157c:	00000000 	nop
a0801580:	8fc20010 	lw	v0,16(s8)
a0801584:	24420001 	addiu	v0,v0,1
a0801588:	afc20010 	sw	v0,16(s8)
a080158c:	8fc20010 	lw	v0,16(s8)
a0801590:	28420005 	slti	v0,v0,5
a0801594:	1440fff2 	bnez	v0,a0801560 <init_pcb+0x1c>
a0801598:	00000000 	nop
a080159c:	3c02a080 	lui	v0,0xa080
a08015a0:	244470a8 	addiu	a0,v0,28840
a08015a4:	0c200ebc 	jal	a0803af0 <queue_init>
a08015a8:	00000000 	nop
a08015ac:	3c02a080 	lui	v0,0xa080
a08015b0:	244470c0 	addiu	a0,v0,28864
a08015b4:	0c200ebc 	jal	a0803af0 <queue_init>
a08015b8:	00000000 	nop
a08015bc:	afc00010 	sw	zero,16(s8)
a08015c0:	082005a1 	j	a0801684 <init_pcb+0x140>
a08015c4:	00000000 	nop
a08015c8:	8fc20010 	lw	v0,16(s8)
a08015cc:	3c03a081 	lui	v1,0xa081
a08015d0:	00022080 	sll	a0,v0,0x2
a08015d4:	2462c4e4 	addiu	v0,v1,-15132
a08015d8:	00821021 	addu	v0,a0,v0
a08015dc:	ac400000 	sw	zero,0(v0)
a08015e0:	8fc40010 	lw	a0,16(s8)
a08015e4:	3c02a080 	lui	v0,0xa080
a08015e8:	8c426f54 	lw	v0,28500(v0)
a08015ec:	00402821 	move	a1,v0
a08015f0:	3c06a082 	lui	a2,0xa082
a08015f4:	00801021 	move	v0,a0
a08015f8:	000218c0 	sll	v1,v0,0x3
a08015fc:	00031080 	sll	v0,v1,0x2
a0801600:	00431023 	subu	v0,v0,v1
a0801604:	00441023 	subu	v0,v0,a0
a0801608:	00021900 	sll	v1,v0,0x4
a080160c:	24c289e0 	addiu	v0,a2,-30240
a0801610:	00621021 	addu	v0,v1,v0
a0801614:	ac450138 	sw	a1,312(v0)
a0801618:	3c02a080 	lui	v0,0xa080
a080161c:	8c426f54 	lw	v0,28500(v0)
a0801620:	2443f000 	addiu	v1,v0,-4096
a0801624:	3c02a080 	lui	v0,0xa080
a0801628:	ac436f54 	sw	v1,28500(v0)
a080162c:	8fc40010 	lw	a0,16(s8)
a0801630:	3c02a080 	lui	v0,0xa080
a0801634:	8c426f54 	lw	v0,28500(v0)
a0801638:	00402821 	move	a1,v0
a080163c:	3c02a082 	lui	v0,0xa082
a0801640:	244689e0 	addiu	a2,v0,-30240
a0801644:	00801021 	move	v0,a0
a0801648:	000218c0 	sll	v1,v0,0x3
a080164c:	00031080 	sll	v0,v1,0x2
a0801650:	00431023 	subu	v0,v0,v1
a0801654:	00441023 	subu	v0,v0,a0
a0801658:	00021100 	sll	v0,v0,0x4
a080165c:	00c21021 	addu	v0,a2,v0
a0801660:	ac45013c 	sw	a1,316(v0)
a0801664:	3c02a080 	lui	v0,0xa080
a0801668:	8c426f54 	lw	v0,28500(v0)
a080166c:	2443f000 	addiu	v1,v0,-4096
a0801670:	3c02a080 	lui	v0,0xa080
a0801674:	ac436f54 	sw	v1,28500(v0)
a0801678:	8fc20010 	lw	v0,16(s8)
a080167c:	24420001 	addiu	v0,v0,1
a0801680:	afc20010 	sw	v0,16(s8)
a0801684:	8fc20010 	lw	v0,16(s8)
a0801688:	28420010 	slti	v0,v0,16
a080168c:	1440ffce 	bnez	v0,a08015c8 <init_pcb+0x84>
a0801690:	00000000 	nop
a0801694:	3c03a081 	lui	v1,0xa081
a0801698:	24020001 	li	v0,1
a080169c:	ac62c4e4 	sw	v0,-15132(v1)
a08016a0:	3c03a080 	lui	v1,0xa080
a08016a4:	3c02a082 	lui	v0,0xa082
a08016a8:	244289e0 	addiu	v0,v0,-30240
a08016ac:	ac6270cc 	sw	v0,28876(v1)
a08016b0:	3c02a082 	lui	v0,0xa082
a08016b4:	244389e0 	addiu	v1,v0,-30240
a08016b8:	24020001 	li	v0,1
a08016bc:	ac620150 	sw	v0,336(v1)
a08016c0:	3c02a082 	lui	v0,0xa082
a08016c4:	244389e0 	addiu	v1,v0,-30240
a08016c8:	24020001 	li	v0,1
a08016cc:	ac62015c 	sw	v0,348(v1)
a08016d0:	0c2004fb 	jal	a08013ec <init_shell>
a08016d4:	00000000 	nop
a08016d8:	03c0e821 	move	sp,s8
a08016dc:	8fbf001c 	lw	ra,28(sp)
a08016e0:	8fbe0018 	lw	s8,24(sp)
a08016e4:	27bd0020 	addiu	sp,sp,32
a08016e8:	03e00008 	jr	ra
a08016ec:	00000000 	nop

a08016f0 <init_exception_handler>:
a08016f0:	27bdfff0 	addiu	sp,sp,-16
a08016f4:	afbe000c 	sw	s8,12(sp)
a08016f8:	03a0f021 	move	s8,sp
a08016fc:	3c02a080 	lui	v0,0xa080
a0801700:	24430754 	addiu	v1,v0,1876
a0801704:	3c02a082 	lui	v0,0xa082
a0801708:	ac438960 	sw	v1,-30368(v0)
a080170c:	24020001 	li	v0,1
a0801710:	afc20000 	sw	v0,0(s8)
a0801714:	082005d2 	j	a0801748 <init_exception_handler+0x58>
a0801718:	00000000 	nop
a080171c:	8fc30000 	lw	v1,0(s8)
a0801720:	3c02a080 	lui	v0,0xa080
a0801724:	24440a14 	addiu	a0,v0,2580
a0801728:	3c02a082 	lui	v0,0xa082
a080172c:	00031880 	sll	v1,v1,0x2
a0801730:	24428960 	addiu	v0,v0,-30368
a0801734:	00621021 	addu	v0,v1,v0
a0801738:	ac440000 	sw	a0,0(v0)
a080173c:	8fc20000 	lw	v0,0(s8)
a0801740:	24420001 	addiu	v0,v0,1
a0801744:	afc20000 	sw	v0,0(s8)
a0801748:	8fc20000 	lw	v0,0(s8)
a080174c:	28420020 	slti	v0,v0,32
a0801750:	1440fff2 	bnez	v0,a080171c <init_exception_handler+0x2c>
a0801754:	00000000 	nop
a0801758:	3c02a080 	lui	v0,0xa080
a080175c:	24430934 	addiu	v1,v0,2356
a0801760:	3c02a082 	lui	v0,0xa082
a0801764:	24428960 	addiu	v0,v0,-30368
a0801768:	ac430008 	sw	v1,8(v0)
a080176c:	3c02a080 	lui	v0,0xa080
a0801770:	24430934 	addiu	v1,v0,2356
a0801774:	3c02a082 	lui	v0,0xa082
a0801778:	24428960 	addiu	v0,v0,-30368
a080177c:	ac43000c 	sw	v1,12(v0)
a0801780:	3c02a080 	lui	v0,0xa080
a0801784:	24430848 	addiu	v1,v0,2120
a0801788:	3c02a082 	lui	v0,0xa082
a080178c:	24428960 	addiu	v0,v0,-30368
a0801790:	ac430020 	sw	v1,32(v0)
a0801794:	03c0e821 	move	sp,s8
a0801798:	8fbe000c 	lw	s8,12(sp)
a080179c:	27bd0010 	addiu	sp,sp,16
a08017a0:	03e00008 	jr	ra
a08017a4:	00000000 	nop

a08017a8 <init_exception>:
a08017a8:	27bdffe8 	addiu	sp,sp,-24
a08017ac:	afbf0014 	sw	ra,20(sp)
a08017b0:	afbe0010 	sw	s8,16(sp)
a08017b4:	03a0f021 	move	s8,sp
a08017b8:	0c2005bc 	jal	a08016f0 <init_exception_handler>
a08017bc:	00000000 	nop
a08017c0:	0c2000d5 	jal	a0800354 <GET_CP0_STATUS>
a08017c4:	00000000 	nop
a08017c8:	00401821 	move	v1,v0
a08017cc:	3c02a080 	lui	v0,0xa080
a08017d0:	ac4370c8 	sw	v1,28872(v0)
a08017d4:	3c02a080 	lui	v0,0xa080
a08017d8:	8c4370c8 	lw	v1,28872(v0)
a08017dc:	3c021000 	lui	v0,0x1000
a08017e0:	34428001 	ori	v0,v0,0x8001
a08017e4:	00621825 	or	v1,v1,v0
a08017e8:	3c02a080 	lui	v0,0xa080
a08017ec:	ac4370c8 	sw	v1,28872(v0)
a08017f0:	3c02a080 	lui	v0,0xa080
a08017f4:	8c4270c8 	lw	v0,28872(v0)
a08017f8:	38430001 	xori	v1,v0,0x1
a08017fc:	3c02a080 	lui	v0,0xa080
a0801800:	ac4370c8 	sw	v1,28872(v0)
a0801804:	3c02a080 	lui	v0,0xa080
a0801808:	8c4270c8 	lw	v0,28872(v0)
a080180c:	00402021 	move	a0,v0
a0801810:	0c2000d8 	jal	a0800360 <SET_CP0_STATUS>
a0801814:	00000000 	nop
a0801818:	3c02a080 	lui	v0,0xa080
a080181c:	8c4270c8 	lw	v0,28872(v0)
a0801820:	34430001 	ori	v1,v0,0x1
a0801824:	3c02a080 	lui	v0,0xa080
a0801828:	ac4370c8 	sw	v1,28872(v0)
a080182c:	3c048000 	lui	a0,0x8000
a0801830:	24050180 	li	a1,384
a0801834:	0c2013a7 	jal	a0804e9c <bzero>
a0801838:	00000000 	nop
a080183c:	3c02a080 	lui	v0,0xa080
a0801840:	24450570 	addiu	a1,v0,1392
a0801844:	3c02a080 	lui	v0,0xa080
a0801848:	24430654 	addiu	v1,v0,1620
a080184c:	3c02a080 	lui	v0,0xa080
a0801850:	24420570 	addiu	v0,v0,1392
a0801854:	00621023 	subu	v0,v1,v0
a0801858:	3c048000 	lui	a0,0x8000
a080185c:	00403021 	move	a2,v0
a0801860:	0c20136e 	jal	a0804db8 <memcpy>
a0801864:	00000000 	nop
a0801868:	3c02a080 	lui	v0,0xa080
a080186c:	24450654 	addiu	a1,v0,1620
a0801870:	3c02a080 	lui	v0,0xa080
a0801874:	24430754 	addiu	v1,v0,1876
a0801878:	3c02a080 	lui	v0,0xa080
a080187c:	24420654 	addiu	v0,v0,1620
a0801880:	00621023 	subu	v0,v1,v0
a0801884:	00401821 	move	v1,v0
a0801888:	3c028000 	lui	v0,0x8000
a080188c:	34440180 	ori	a0,v0,0x180
a0801890:	00603021 	move	a2,v1
a0801894:	0c20136e 	jal	a0804db8 <memcpy>
a0801898:	00000000 	nop
a080189c:	3c04bfc0 	lui	a0,0xbfc0
a08018a0:	24050380 	li	a1,896
a08018a4:	0c2013a7 	jal	a0804e9c <bzero>
a08018a8:	00000000 	nop
a08018ac:	3c02a080 	lui	v0,0xa080
a08018b0:	24450570 	addiu	a1,v0,1392
a08018b4:	3c02a080 	lui	v0,0xa080
a08018b8:	24430654 	addiu	v1,v0,1620
a08018bc:	3c02a080 	lui	v0,0xa080
a08018c0:	24420570 	addiu	v0,v0,1392
a08018c4:	00621023 	subu	v0,v1,v0
a08018c8:	3c04bfc0 	lui	a0,0xbfc0
a08018cc:	00403021 	move	a2,v0
a08018d0:	0c20136e 	jal	a0804db8 <memcpy>
a08018d4:	00000000 	nop
a08018d8:	3c02a080 	lui	v0,0xa080
a08018dc:	24450654 	addiu	a1,v0,1620
a08018e0:	3c02a080 	lui	v0,0xa080
a08018e4:	24430754 	addiu	v1,v0,1876
a08018e8:	3c02a080 	lui	v0,0xa080
a08018ec:	24420654 	addiu	v0,v0,1620
a08018f0:	00621023 	subu	v0,v1,v0
a08018f4:	00401821 	move	v1,v0
a08018f8:	3c02bfc0 	lui	v0,0xbfc0
a08018fc:	34440380 	ori	a0,v0,0x380
a0801900:	00603021 	move	a2,v1
a0801904:	0c20136e 	jal	a0804db8 <memcpy>
a0801908:	00000000 	nop
a080190c:	00002021 	move	a0,zero
a0801910:	0c2000de 	jal	a0800378 <SET_CP0_COUNT>
a0801914:	00000000 	nop
a0801918:	3c040030 	lui	a0,0x30
a080191c:	0c2000e4 	jal	a0800390 <SET_CP0_COMPARE>
a0801920:	00000000 	nop
a0801924:	03c0e821 	move	sp,s8
a0801928:	8fbf0014 	lw	ra,20(sp)
a080192c:	8fbe0010 	lw	s8,16(sp)
a0801930:	27bd0018 	addiu	sp,sp,24
a0801934:	03e00008 	jr	ra
a0801938:	00000000 	nop

a080193c <init_syscall>:
a080193c:	27bdfff0 	addiu	sp,sp,-16
a0801940:	afbe000c 	sw	s8,12(sp)
a0801944:	03a0f021 	move	s8,sp
a0801948:	afc00000 	sw	zero,0(s8)
a080194c:	08200660 	j	a0801980 <init_syscall+0x44>
a0801950:	00000000 	nop
a0801954:	8fc30000 	lw	v1,0(s8)
a0801958:	3c02a080 	lui	v0,0xa080
a080195c:	24442e98 	addiu	a0,v0,11928
a0801960:	3c02a081 	lui	v0,0xa081
a0801964:	00031880 	sll	v1,v1,0x2
a0801968:	2442c3e4 	addiu	v0,v0,-15388
a080196c:	00621021 	addu	v0,v1,v0
a0801970:	ac440000 	sw	a0,0(v0)
a0801974:	8fc20000 	lw	v0,0(s8)
a0801978:	24420001 	addiu	v0,v0,1
a080197c:	afc20000 	sw	v0,0(s8)
a0801980:	8fc20000 	lw	v0,0(s8)
a0801984:	28420040 	slti	v0,v0,64
a0801988:	1440fff2 	bnez	v0,a0801954 <init_syscall+0x18>
a080198c:	00000000 	nop
a0801990:	3c02a080 	lui	v0,0xa080
a0801994:	24432e10 	addiu	v1,v0,11792
a0801998:	3c02a081 	lui	v0,0xa081
a080199c:	2442c3e4 	addiu	v0,v0,-15388
a08019a0:	ac430008 	sw	v1,8(v0)
a08019a4:	3c02a080 	lui	v0,0xa080
a08019a8:	24433084 	addiu	v1,v0,12420
a08019ac:	3c02a081 	lui	v0,0xa081
a08019b0:	2442c3e4 	addiu	v0,v0,-15388
a08019b4:	ac43000c 	sw	v1,12(v0)
a08019b8:	3c02a080 	lui	v0,0xa080
a08019bc:	24432eb8 	addiu	v1,v0,11960
a08019c0:	3c02a081 	lui	v0,0xa081
a08019c4:	2442c3e4 	addiu	v0,v0,-15388
a08019c8:	ac430028 	sw	v1,40(v0)
a08019cc:	3c02a080 	lui	v0,0xa080
a08019d0:	24432f10 	addiu	v1,v0,12048
a08019d4:	3c02a081 	lui	v0,0xa081
a08019d8:	2442c3e4 	addiu	v0,v0,-15388
a08019dc:	ac43002c 	sw	v1,44(v0)
a08019e0:	3c02a080 	lui	v0,0xa080
a08019e4:	24432f78 	addiu	v1,v0,12152
a08019e8:	3c02a081 	lui	v0,0xa081
a08019ec:	2442c3e4 	addiu	v0,v0,-15388
a08019f0:	ac430030 	sw	v1,48(v0)
a08019f4:	3c02a080 	lui	v0,0xa080
a08019f8:	24431170 	addiu	v1,v0,4464
a08019fc:	3c02a081 	lui	v0,0xa081
a0801a00:	2442c3e4 	addiu	v0,v0,-15388
a0801a04:	ac430050 	sw	v1,80(v0)
a0801a08:	3c02a080 	lui	v0,0xa080
a0801a0c:	24431130 	addiu	v1,v0,4400
a0801a10:	3c02a081 	lui	v0,0xa081
a0801a14:	2442c3e4 	addiu	v0,v0,-15388
a0801a18:	ac430058 	sw	v1,88(v0)
a0801a1c:	3c02a080 	lui	v0,0xa080
a0801a20:	244311f8 	addiu	v1,v0,4600
a0801a24:	3c02a081 	lui	v0,0xa081
a0801a28:	2442c3e4 	addiu	v0,v0,-15388
a0801a2c:	ac43005c 	sw	v1,92(v0)
a0801a30:	3c02a080 	lui	v0,0xa080
a0801a34:	2443317c 	addiu	v1,v0,12668
a0801a38:	3c02a081 	lui	v0,0xa081
a0801a3c:	2442c3e4 	addiu	v0,v0,-15388
a0801a40:	ac430060 	sw	v1,96(v0)
a0801a44:	3c02a080 	lui	v0,0xa080
a0801a48:	244332d8 	addiu	v1,v0,13016
a0801a4c:	3c02a081 	lui	v0,0xa081
a0801a50:	2442c3e4 	addiu	v0,v0,-15388
a0801a54:	ac430064 	sw	v1,100(v0)
a0801a58:	3c02a080 	lui	v0,0xa080
a0801a5c:	2443354c 	addiu	v1,v0,13644
a0801a60:	3c02a081 	lui	v0,0xa081
a0801a64:	2442c3e4 	addiu	v0,v0,-15388
a0801a68:	ac430068 	sw	v1,104(v0)
a0801a6c:	3c02a080 	lui	v0,0xa080
a0801a70:	24433950 	addiu	v1,v0,14672
a0801a74:	3c02a081 	lui	v0,0xa081
a0801a78:	2442c3e4 	addiu	v0,v0,-15388
a0801a7c:	ac43006c 	sw	v1,108(v0)
a0801a80:	3c02a080 	lui	v0,0xa080
a0801a84:	24433988 	addiu	v1,v0,14728
a0801a88:	3c02a081 	lui	v0,0xa081
a0801a8c:	2442c3e4 	addiu	v0,v0,-15388
a0801a90:	ac430070 	sw	v1,112(v0)
a0801a94:	3c02a080 	lui	v0,0xa080
a0801a98:	244339e0 	addiu	v1,v0,14816
a0801a9c:	3c02a081 	lui	v0,0xa081
a0801aa0:	2442c3e4 	addiu	v0,v0,-15388
a0801aa4:	ac430074 	sw	v1,116(v0)
a0801aa8:	3c02a080 	lui	v0,0xa080
a0801aac:	24431d5c 	addiu	v1,v0,7516
a0801ab0:	3c02a081 	lui	v0,0xa081
a0801ab4:	2442c3e4 	addiu	v0,v0,-15388
a0801ab8:	ac430078 	sw	v1,120(v0)
a0801abc:	3c02a080 	lui	v0,0xa080
a0801ac0:	24431da4 	addiu	v1,v0,7588
a0801ac4:	3c02a081 	lui	v0,0xa081
a0801ac8:	2442c3e4 	addiu	v0,v0,-15388
a0801acc:	ac43007c 	sw	v1,124(v0)
a0801ad0:	3c02a080 	lui	v0,0xa080
a0801ad4:	24431e90 	addiu	v1,v0,7824
a0801ad8:	3c02a081 	lui	v0,0xa081
a0801adc:	2442c3e4 	addiu	v0,v0,-15388
a0801ae0:	ac430080 	sw	v1,128(v0)
a0801ae4:	3c02a080 	lui	v0,0xa080
a0801ae8:	24433320 	addiu	v1,v0,13088
a0801aec:	3c02a081 	lui	v0,0xa081
a0801af0:	2442c3e4 	addiu	v0,v0,-15388
a0801af4:	ac430084 	sw	v1,132(v0)
a0801af8:	3c02a080 	lui	v0,0xa080
a0801afc:	24431f40 	addiu	v1,v0,8000
a0801b00:	3c02a081 	lui	v0,0xa081
a0801b04:	2442c3e4 	addiu	v0,v0,-15388
a0801b08:	ac430088 	sw	v1,136(v0)
a0801b0c:	3c02a080 	lui	v0,0xa080
a0801b10:	24431f98 	addiu	v1,v0,8088
a0801b14:	3c02a081 	lui	v0,0xa081
a0801b18:	2442c3e4 	addiu	v0,v0,-15388
a0801b1c:	ac43008c 	sw	v1,140(v0)
a0801b20:	3c02a080 	lui	v0,0xa080
a0801b24:	24432140 	addiu	v1,v0,8512
a0801b28:	3c02a081 	lui	v0,0xa081
a0801b2c:	2442c3e4 	addiu	v0,v0,-15388
a0801b30:	ac430090 	sw	v1,144(v0)
a0801b34:	3c02a080 	lui	v0,0xa080
a0801b38:	244321b4 	addiu	v1,v0,8628
a0801b3c:	3c02a081 	lui	v0,0xa081
a0801b40:	2442c3e4 	addiu	v0,v0,-15388
a0801b44:	ac430094 	sw	v1,148(v0)
a0801b48:	3c02a080 	lui	v0,0xa080
a0801b4c:	24432250 	addiu	v1,v0,8784
a0801b50:	3c02a081 	lui	v0,0xa081
a0801b54:	2442c3e4 	addiu	v0,v0,-15388
a0801b58:	ac430098 	sw	v1,152(v0)
a0801b5c:	3c02a080 	lui	v0,0xa080
a0801b60:	24432030 	addiu	v1,v0,8240
a0801b64:	3c02a081 	lui	v0,0xa081
a0801b68:	2442c3e4 	addiu	v0,v0,-15388
a0801b6c:	ac43009c 	sw	v1,156(v0)
a0801b70:	3c02a080 	lui	v0,0xa080
a0801b74:	2443206c 	addiu	v1,v0,8300
a0801b78:	3c02a081 	lui	v0,0xa081
a0801b7c:	2442c3e4 	addiu	v0,v0,-15388
a0801b80:	ac4300a0 	sw	v1,160(v0)
a0801b84:	3c02a080 	lui	v0,0xa080
a0801b88:	244320c4 	addiu	v1,v0,8388
a0801b8c:	3c02a081 	lui	v0,0xa081
a0801b90:	2442c3e4 	addiu	v0,v0,-15388
a0801b94:	ac4300a4 	sw	v1,164(v0)
a0801b98:	3c02a080 	lui	v0,0xa080
a0801b9c:	24432100 	addiu	v1,v0,8448
a0801ba0:	3c02a081 	lui	v0,0xa081
a0801ba4:	2442c3e4 	addiu	v0,v0,-15388
a0801ba8:	ac4300a8 	sw	v1,168(v0)
a0801bac:	03c0e821 	move	sp,s8
a0801bb0:	8fbe000c 	lw	s8,12(sp)
a0801bb4:	27bd0010 	addiu	sp,sp,16
a0801bb8:	03e00008 	jr	ra
a0801bbc:	00000000 	nop

a0801bc0 <irq_timer>:
a0801bc0:	27bdffe8 	addiu	sp,sp,-24
a0801bc4:	afbf0014 	sw	ra,20(sp)
a0801bc8:	afbe0010 	sw	s8,16(sp)
a0801bcc:	03a0f021 	move	s8,sp
a0801bd0:	0c20047e 	jal	a08011f8 <screen_reflush>
a0801bd4:	00000000 	nop
a0801bd8:	3c02a081 	lui	v0,0xa081
a0801bdc:	8c4383c0 	lw	v1,-31808(v0)
a0801be0:	3c020002 	lui	v0,0x2
a0801be4:	344249f0 	ori	v0,v0,0x49f0
a0801be8:	00621821 	addu	v1,v1,v0
a0801bec:	3c02a081 	lui	v0,0xa081
a0801bf0:	ac4383c0 	sw	v1,-31808(v0)
a0801bf4:	0c2000f9 	jal	a08003e4 <do_scheduler>
a0801bf8:	00000000 	nop
a0801bfc:	03c0e821 	move	sp,s8
a0801c00:	8fbf0014 	lw	ra,20(sp)
a0801c04:	8fbe0010 	lw	s8,16(sp)
a0801c08:	27bd0018 	addiu	sp,sp,24
a0801c0c:	03e00008 	jr	ra
a0801c10:	00000000 	nop

a0801c14 <interrupt_helper>:
a0801c14:	27bdffe0 	addiu	sp,sp,-32
a0801c18:	afbf001c 	sw	ra,28(sp)
a0801c1c:	afbe0018 	sw	s8,24(sp)
a0801c20:	03a0f021 	move	s8,sp
a0801c24:	afc40020 	sw	a0,32(s8)
a0801c28:	afc50024 	sw	a1,36(s8)
a0801c2c:	8fc20024 	lw	v0,36(s8)
a0801c30:	3042ff00 	andi	v0,v0,0xff00
a0801c34:	00021202 	srl	v0,v0,0x8
a0801c38:	afc20010 	sw	v0,16(s8)
a0801c3c:	8fc30010 	lw	v1,16(s8)
a0801c40:	24020080 	li	v0,128
a0801c44:	14620005 	bne	v1,v0,a0801c5c <interrupt_helper+0x48>
a0801c48:	00000000 	nop
a0801c4c:	0c2006f0 	jal	a0801bc0 <irq_timer>
a0801c50:	00000000 	nop
a0801c54:	08200719 	j	a0801c64 <interrupt_helper+0x50>
a0801c58:	00000000 	nop
a0801c5c:	0c20071f 	jal	a0801c7c <other_exception_handler>
a0801c60:	00000000 	nop
a0801c64:	03c0e821 	move	sp,s8
a0801c68:	8fbf001c 	lw	ra,28(sp)
a0801c6c:	8fbe0018 	lw	s8,24(sp)
a0801c70:	27bd0020 	addiu	sp,sp,32
a0801c74:	03e00008 	jr	ra
a0801c78:	00000000 	nop

a0801c7c <other_exception_handler>:
a0801c7c:	27bdfff8 	addiu	sp,sp,-8
a0801c80:	afbe0004 	sw	s8,4(sp)
a0801c84:	03a0f021 	move	s8,sp
a0801c88:	3c02a081 	lui	v0,0xa081
a0801c8c:	8c4383c0 	lw	v1,-31808(v0)
a0801c90:	3c020002 	lui	v0,0x2
a0801c94:	344249f0 	ori	v0,v0,0x49f0
a0801c98:	00621821 	addu	v1,v1,v0
a0801c9c:	3c02a081 	lui	v0,0xa081
a0801ca0:	ac4383c0 	sw	v1,-31808(v0)
a0801ca4:	03c0e821 	move	sp,s8
a0801ca8:	8fbe0004 	lw	s8,4(sp)
a0801cac:	27bd0008 	addiu	sp,sp,8
a0801cb0:	03e00008 	jr	ra
a0801cb4:	00000000 	nop
	...

a0801cc0 <spin_lock_init>:
a0801cc0:	27bdfff8 	addiu	sp,sp,-8
a0801cc4:	afbe0004 	sw	s8,4(sp)
a0801cc8:	03a0f021 	move	s8,sp
a0801ccc:	afc40008 	sw	a0,8(s8)
a0801cd0:	8fc20008 	lw	v0,8(s8)
a0801cd4:	ac400000 	sw	zero,0(v0)
a0801cd8:	03c0e821 	move	sp,s8
a0801cdc:	8fbe0004 	lw	s8,4(sp)
a0801ce0:	27bd0008 	addiu	sp,sp,8
a0801ce4:	03e00008 	jr	ra
a0801ce8:	00000000 	nop

a0801cec <spin_lock_acquire>:
a0801cec:	27bdfff8 	addiu	sp,sp,-8
a0801cf0:	afbe0004 	sw	s8,4(sp)
a0801cf4:	03a0f021 	move	s8,sp
a0801cf8:	afc40008 	sw	a0,8(s8)
a0801cfc:	8fc20008 	lw	v0,8(s8)
a0801d00:	8c430000 	lw	v1,0(v0)
a0801d04:	24020001 	li	v0,1
a0801d08:	1062fffc 	beq	v1,v0,a0801cfc <spin_lock_acquire+0x10>
a0801d0c:	00000000 	nop
a0801d10:	8fc30008 	lw	v1,8(s8)
a0801d14:	24020001 	li	v0,1
a0801d18:	ac620000 	sw	v0,0(v1)
a0801d1c:	03c0e821 	move	sp,s8
a0801d20:	8fbe0004 	lw	s8,4(sp)
a0801d24:	27bd0008 	addiu	sp,sp,8
a0801d28:	03e00008 	jr	ra
a0801d2c:	00000000 	nop

a0801d30 <spin_lock_release>:
a0801d30:	27bdfff8 	addiu	sp,sp,-8
a0801d34:	afbe0004 	sw	s8,4(sp)
a0801d38:	03a0f021 	move	s8,sp
a0801d3c:	afc40008 	sw	a0,8(s8)
a0801d40:	8fc20008 	lw	v0,8(s8)
a0801d44:	ac400000 	sw	zero,0(v0)
a0801d48:	03c0e821 	move	sp,s8
a0801d4c:	8fbe0004 	lw	s8,4(sp)
a0801d50:	27bd0008 	addiu	sp,sp,8
a0801d54:	03e00008 	jr	ra
a0801d58:	00000000 	nop

a0801d5c <do_mutex_lock_init>:
a0801d5c:	27bdffe8 	addiu	sp,sp,-24
a0801d60:	afbf0014 	sw	ra,20(sp)
a0801d64:	afbe0010 	sw	s8,16(sp)
a0801d68:	03a0f021 	move	s8,sp
a0801d6c:	afc40018 	sw	a0,24(s8)
a0801d70:	8fc20018 	lw	v0,24(s8)
a0801d74:	ac400000 	sw	zero,0(v0)
a0801d78:	8fc20018 	lw	v0,24(s8)
a0801d7c:	24420004 	addiu	v0,v0,4
a0801d80:	00402021 	move	a0,v0
a0801d84:	0c200ebc 	jal	a0803af0 <queue_init>
a0801d88:	00000000 	nop
a0801d8c:	03c0e821 	move	sp,s8
a0801d90:	8fbf0014 	lw	ra,20(sp)
a0801d94:	8fbe0010 	lw	s8,16(sp)
a0801d98:	27bd0018 	addiu	sp,sp,24
a0801d9c:	03e00008 	jr	ra
a0801da0:	00000000 	nop

a0801da4 <do_mutex_lock_acquire>:
a0801da4:	27bdffe8 	addiu	sp,sp,-24
a0801da8:	afbf0014 	sw	ra,20(sp)
a0801dac:	afbe0010 	sw	s8,16(sp)
a0801db0:	03a0f021 	move	s8,sp
a0801db4:	afc40018 	sw	a0,24(s8)
a0801db8:	8fc20018 	lw	v0,24(s8)
a0801dbc:	8c420000 	lw	v0,0(v0)
a0801dc0:	1440000e 	bnez	v0,a0801dfc <do_mutex_lock_acquire+0x58>
a0801dc4:	00000000 	nop
a0801dc8:	8fc20018 	lw	v0,24(s8)
a0801dcc:	24430004 	addiu	v1,v0,4
a0801dd0:	3c02a080 	lui	v0,0xa080
a0801dd4:	8c4270cc 	lw	v0,28876(v0)
a0801dd8:	00602021 	move	a0,v1
a0801ddc:	00402821 	move	a1,v0
a0801de0:	0c200ede 	jal	a0803b78 <queue_push>
a0801de4:	00000000 	nop
a0801de8:	8fc30018 	lw	v1,24(s8)
a0801dec:	24020001 	li	v0,1
a0801df0:	ac620000 	sw	v0,0(v1)
a0801df4:	0820079e 	j	a0801e78 <do_mutex_lock_acquire+0xd4>
a0801df8:	00000000 	nop
a0801dfc:	8fc20018 	lw	v0,24(s8)
a0801e00:	8c430004 	lw	v1,4(v0)
a0801e04:	3c02a080 	lui	v0,0xa080
a0801e08:	8c4270cc 	lw	v0,28876(v0)
a0801e0c:	1062001a 	beq	v1,v0,a0801e78 <do_mutex_lock_acquire+0xd4>
a0801e10:	00000000 	nop
a0801e14:	8fc20018 	lw	v0,24(s8)
a0801e18:	24430004 	addiu	v1,v0,4
a0801e1c:	3c02a080 	lui	v0,0xa080
a0801e20:	8c4270cc 	lw	v0,28876(v0)
a0801e24:	00602021 	move	a0,v1
a0801e28:	00402821 	move	a1,v0
a0801e2c:	0c200f4d 	jal	a0803d34 <is_in_queue>
a0801e30:	00000000 	nop
a0801e34:	14400010 	bnez	v0,a0801e78 <do_mutex_lock_acquire+0xd4>
a0801e38:	00000000 	nop
a0801e3c:	8fc20018 	lw	v0,24(s8)
a0801e40:	24430004 	addiu	v1,v0,4
a0801e44:	3c02a080 	lui	v0,0xa080
a0801e48:	8c4270cc 	lw	v0,28876(v0)
a0801e4c:	00602021 	move	a0,v1
a0801e50:	00402821 	move	a1,v0
a0801e54:	0c200ede 	jal	a0803b78 <queue_push>
a0801e58:	00000000 	nop
a0801e5c:	8fc20018 	lw	v0,24(s8)
a0801e60:	2442000c 	addiu	v0,v0,12
a0801e64:	00402021 	move	a0,v0
a0801e68:	0c200bae 	jal	a0802eb8 <do_block>
a0801e6c:	00000000 	nop
a0801e70:	0c2000f9 	jal	a08003e4 <do_scheduler>
a0801e74:	00000000 	nop
a0801e78:	03c0e821 	move	sp,s8
a0801e7c:	8fbf0014 	lw	ra,20(sp)
a0801e80:	8fbe0010 	lw	s8,16(sp)
a0801e84:	27bd0018 	addiu	sp,sp,24
a0801e88:	03e00008 	jr	ra
a0801e8c:	00000000 	nop

a0801e90 <do_mutex_lock_release>:
a0801e90:	27bdffe8 	addiu	sp,sp,-24
a0801e94:	afbf0014 	sw	ra,20(sp)
a0801e98:	afbe0010 	sw	s8,16(sp)
a0801e9c:	03a0f021 	move	s8,sp
a0801ea0:	afc40018 	sw	a0,24(s8)
a0801ea4:	8fc20018 	lw	v0,24(s8)
a0801ea8:	24420004 	addiu	v0,v0,4
a0801eac:	00402021 	move	a0,v0
a0801eb0:	0c200ecb 	jal	a0803b2c <queue_is_empty>
a0801eb4:	00000000 	nop
a0801eb8:	10400005 	beqz	v0,a0801ed0 <do_mutex_lock_release+0x40>
a0801ebc:	00000000 	nop
a0801ec0:	8fc20018 	lw	v0,24(s8)
a0801ec4:	ac400000 	sw	zero,0(v0)
a0801ec8:	082007c2 	j	a0801f08 <do_mutex_lock_release+0x78>
a0801ecc:	00000000 	nop
a0801ed0:	8fc20018 	lw	v0,24(s8)
a0801ed4:	24420004 	addiu	v0,v0,4
a0801ed8:	00402021 	move	a0,v0
a0801edc:	0c200f77 	jal	a0803ddc <queue_dequeue>
a0801ee0:	00000000 	nop
a0801ee4:	8fc20018 	lw	v0,24(s8)
a0801ee8:	24420004 	addiu	v0,v0,4
a0801eec:	00402021 	move	a0,v0
a0801ef0:	0c200ecb 	jal	a0803b2c <queue_is_empty>
a0801ef4:	00000000 	nop
a0801ef8:	10400003 	beqz	v0,a0801f08 <do_mutex_lock_release+0x78>
a0801efc:	00000000 	nop
a0801f00:	8fc20018 	lw	v0,24(s8)
a0801f04:	ac400000 	sw	zero,0(v0)
a0801f08:	8fc20018 	lw	v0,24(s8)
a0801f0c:	2442000c 	addiu	v0,v0,12
a0801f10:	00402021 	move	a0,v0
a0801f14:	0c200bde 	jal	a0802f78 <do_unblock_all>
a0801f18:	00000000 	nop
a0801f1c:	03c0e821 	move	sp,s8
a0801f20:	8fbf0014 	lw	ra,20(sp)
a0801f24:	8fbe0010 	lw	s8,16(sp)
a0801f28:	27bd0018 	addiu	sp,sp,24
a0801f2c:	03e00008 	jr	ra
a0801f30:	00000000 	nop
	...

a0801f40 <do_barrier_init>:
a0801f40:	27bdffe8 	addiu	sp,sp,-24
a0801f44:	afbf0014 	sw	ra,20(sp)
a0801f48:	afbe0010 	sw	s8,16(sp)
a0801f4c:	03a0f021 	move	s8,sp
a0801f50:	afc40018 	sw	a0,24(s8)
a0801f54:	afc5001c 	sw	a1,28(s8)
a0801f58:	8fc3001c 	lw	v1,28(s8)
a0801f5c:	8fc20018 	lw	v0,24(s8)
a0801f60:	ac430000 	sw	v1,0(v0)
a0801f64:	8fc20018 	lw	v0,24(s8)
a0801f68:	ac400004 	sw	zero,4(v0)
a0801f6c:	8fc20018 	lw	v0,24(s8)
a0801f70:	24420008 	addiu	v0,v0,8
a0801f74:	00402021 	move	a0,v0
a0801f78:	0c200ebc 	jal	a0803af0 <queue_init>
a0801f7c:	00000000 	nop
a0801f80:	03c0e821 	move	sp,s8
a0801f84:	8fbf0014 	lw	ra,20(sp)
a0801f88:	8fbe0010 	lw	s8,16(sp)
a0801f8c:	27bd0018 	addiu	sp,sp,24
a0801f90:	03e00008 	jr	ra
a0801f94:	00000000 	nop

a0801f98 <do_barrier_wait>:
a0801f98:	27bdffe8 	addiu	sp,sp,-24
a0801f9c:	afbf0014 	sw	ra,20(sp)
a0801fa0:	afbe0010 	sw	s8,16(sp)
a0801fa4:	03a0f021 	move	s8,sp
a0801fa8:	afc40018 	sw	a0,24(s8)
a0801fac:	8fc20018 	lw	v0,24(s8)
a0801fb0:	8c420004 	lw	v0,4(v0)
a0801fb4:	24430001 	addiu	v1,v0,1
a0801fb8:	8fc20018 	lw	v0,24(s8)
a0801fbc:	ac430004 	sw	v1,4(v0)
a0801fc0:	8fc20018 	lw	v0,24(s8)
a0801fc4:	8c430004 	lw	v1,4(v0)
a0801fc8:	8fc20018 	lw	v0,24(s8)
a0801fcc:	8c420000 	lw	v0,0(v0)
a0801fd0:	0062102b 	sltu	v0,v1,v0
a0801fd4:	10400008 	beqz	v0,a0801ff8 <do_barrier_wait+0x60>
a0801fd8:	00000000 	nop
a0801fdc:	8fc20018 	lw	v0,24(s8)
a0801fe0:	24420008 	addiu	v0,v0,8
a0801fe4:	00402021 	move	a0,v0
a0801fe8:	0c200bae 	jal	a0802eb8 <do_block>
a0801fec:	00000000 	nop
a0801ff0:	08200805 	j	a0802014 <do_barrier_wait+0x7c>
a0801ff4:	00000000 	nop
a0801ff8:	8fc20018 	lw	v0,24(s8)
a0801ffc:	24420008 	addiu	v0,v0,8
a0802000:	00402021 	move	a0,v0
a0802004:	0c200bde 	jal	a0802f78 <do_unblock_all>
a0802008:	00000000 	nop
a080200c:	0c2000f9 	jal	a08003e4 <do_scheduler>
a0802010:	00000000 	nop
a0802014:	03c0e821 	move	sp,s8
a0802018:	8fbf0014 	lw	ra,20(sp)
a080201c:	8fbe0010 	lw	s8,16(sp)
a0802020:	27bd0018 	addiu	sp,sp,24
a0802024:	03e00008 	jr	ra
a0802028:	00000000 	nop
a080202c:	00000000 	nop

a0802030 <do_condition_init>:
a0802030:	27bdffe8 	addiu	sp,sp,-24
a0802034:	afbf0014 	sw	ra,20(sp)
a0802038:	afbe0010 	sw	s8,16(sp)
a080203c:	03a0f021 	move	s8,sp
a0802040:	afc40018 	sw	a0,24(s8)
a0802044:	8fc20018 	lw	v0,24(s8)
a0802048:	00402021 	move	a0,v0
a080204c:	0c200ebc 	jal	a0803af0 <queue_init>
a0802050:	00000000 	nop
a0802054:	03c0e821 	move	sp,s8
a0802058:	8fbf0014 	lw	ra,20(sp)
a080205c:	8fbe0010 	lw	s8,16(sp)
a0802060:	27bd0018 	addiu	sp,sp,24
a0802064:	03e00008 	jr	ra
a0802068:	00000000 	nop

a080206c <do_condition_wait>:
a080206c:	27bdffe8 	addiu	sp,sp,-24
a0802070:	afbf0014 	sw	ra,20(sp)
a0802074:	afbe0010 	sw	s8,16(sp)
a0802078:	03a0f021 	move	s8,sp
a080207c:	afc40018 	sw	a0,24(s8)
a0802080:	afc5001c 	sw	a1,28(s8)
a0802084:	8fc40018 	lw	a0,24(s8)
a0802088:	0c2007a4 	jal	a0801e90 <do_mutex_lock_release>
a080208c:	00000000 	nop
a0802090:	8fc2001c 	lw	v0,28(s8)
a0802094:	00402021 	move	a0,v0
a0802098:	0c200bae 	jal	a0802eb8 <do_block>
a080209c:	00000000 	nop
a08020a0:	8fc40018 	lw	a0,24(s8)
a08020a4:	0c200769 	jal	a0801da4 <do_mutex_lock_acquire>
a08020a8:	00000000 	nop
a08020ac:	03c0e821 	move	sp,s8
a08020b0:	8fbf0014 	lw	ra,20(sp)
a08020b4:	8fbe0010 	lw	s8,16(sp)
a08020b8:	27bd0018 	addiu	sp,sp,24
a08020bc:	03e00008 	jr	ra
a08020c0:	00000000 	nop

a08020c4 <do_condition_signal>:
a08020c4:	27bdffe8 	addiu	sp,sp,-24
a08020c8:	afbf0014 	sw	ra,20(sp)
a08020cc:	afbe0010 	sw	s8,16(sp)
a08020d0:	03a0f021 	move	s8,sp
a08020d4:	afc40018 	sw	a0,24(s8)
a08020d8:	8fc20018 	lw	v0,24(s8)
a08020dc:	00402021 	move	a0,v0
a08020e0:	0c200bc4 	jal	a0802f10 <do_unblock_one>
a08020e4:	00000000 	nop
a08020e8:	03c0e821 	move	sp,s8
a08020ec:	8fbf0014 	lw	ra,20(sp)
a08020f0:	8fbe0010 	lw	s8,16(sp)
a08020f4:	27bd0018 	addiu	sp,sp,24
a08020f8:	03e00008 	jr	ra
a08020fc:	00000000 	nop

a0802100 <do_condition_broadcast>:
a0802100:	27bdffe8 	addiu	sp,sp,-24
a0802104:	afbf0014 	sw	ra,20(sp)
a0802108:	afbe0010 	sw	s8,16(sp)
a080210c:	03a0f021 	move	s8,sp
a0802110:	afc40018 	sw	a0,24(s8)
a0802114:	8fc20018 	lw	v0,24(s8)
a0802118:	00402021 	move	a0,v0
a080211c:	0c200bde 	jal	a0802f78 <do_unblock_all>
a0802120:	00000000 	nop
a0802124:	03c0e821 	move	sp,s8
a0802128:	8fbf0014 	lw	ra,20(sp)
a080212c:	8fbe0010 	lw	s8,16(sp)
a0802130:	27bd0018 	addiu	sp,sp,24
a0802134:	03e00008 	jr	ra
a0802138:	00000000 	nop
a080213c:	00000000 	nop

a0802140 <do_semaphore_init>:
a0802140:	27bdffe8 	addiu	sp,sp,-24
a0802144:	afbf0014 	sw	ra,20(sp)
a0802148:	afbe0010 	sw	s8,16(sp)
a080214c:	03a0f021 	move	s8,sp
a0802150:	afc40018 	sw	a0,24(s8)
a0802154:	afc5001c 	sw	a1,28(s8)
a0802158:	8fc2001c 	lw	v0,28(s8)
a080215c:	0440000b 	bltz	v0,a080218c <do_semaphore_init+0x4c>
a0802160:	00000000 	nop
a0802164:	8fc30018 	lw	v1,24(s8)
a0802168:	8fc2001c 	lw	v0,28(s8)
a080216c:	ac620000 	sw	v0,0(v1)
a0802170:	8fc20018 	lw	v0,24(s8)
a0802174:	24420004 	addiu	v0,v0,4
a0802178:	00402021 	move	a0,v0
a080217c:	0c200ebc 	jal	a0803af0 <queue_init>
a0802180:	00000000 	nop
a0802184:	08200867 	j	a080219c <do_semaphore_init+0x5c>
a0802188:	00000000 	nop
a080218c:	3c02a080 	lui	v0,0xa080
a0802190:	24446bb0 	addiu	a0,v0,27568
a0802194:	0c20175d 	jal	a0805d74 <my_printf>
a0802198:	00000000 	nop
a080219c:	03c0e821 	move	sp,s8
a08021a0:	8fbf0014 	lw	ra,20(sp)
a08021a4:	8fbe0010 	lw	s8,16(sp)
a08021a8:	27bd0018 	addiu	sp,sp,24
a08021ac:	03e00008 	jr	ra
a08021b0:	00000000 	nop

a08021b4 <do_semaphore_up>:
a08021b4:	27bdffe0 	addiu	sp,sp,-32
a08021b8:	afbf001c 	sw	ra,28(sp)
a08021bc:	afbe0018 	sw	s8,24(sp)
a08021c0:	03a0f021 	move	s8,sp
a08021c4:	afc40020 	sw	a0,32(s8)
a08021c8:	8fc20020 	lw	v0,32(s8)
a08021cc:	24420004 	addiu	v0,v0,4
a08021d0:	00402021 	move	a0,v0
a08021d4:	0c200ecb 	jal	a0803b2c <queue_is_empty>
a08021d8:	00000000 	nop
a08021dc:	14400011 	bnez	v0,a0802224 <do_semaphore_up+0x70>
a08021e0:	00000000 	nop
a08021e4:	8fc20020 	lw	v0,32(s8)
a08021e8:	24420004 	addiu	v0,v0,4
a08021ec:	00402021 	move	a0,v0
a08021f0:	0c200fc1 	jal	a0803f04 <priority_queue_dequeue>
a08021f4:	00000000 	nop
a08021f8:	afc20010 	sw	v0,16(s8)
a08021fc:	8fc30010 	lw	v1,16(s8)
a0802200:	24020002 	li	v0,2
a0802204:	ac620150 	sw	v0,336(v1)
a0802208:	3c02a081 	lui	v0,0xa081
a080220c:	2444c538 	addiu	a0,v0,-15048
a0802210:	8fc50010 	lw	a1,16(s8)
a0802214:	0c200f33 	jal	a0803ccc <priority_queue_push>
a0802218:	00000000 	nop
a080221c:	0820088e 	j	a0802238 <do_semaphore_up+0x84>
a0802220:	00000000 	nop
a0802224:	8fc20020 	lw	v0,32(s8)
a0802228:	8c420000 	lw	v0,0(v0)
a080222c:	24430001 	addiu	v1,v0,1
a0802230:	8fc20020 	lw	v0,32(s8)
a0802234:	ac430000 	sw	v1,0(v0)
a0802238:	03c0e821 	move	sp,s8
a080223c:	8fbf001c 	lw	ra,28(sp)
a0802240:	8fbe0018 	lw	s8,24(sp)
a0802244:	27bd0020 	addiu	sp,sp,32
a0802248:	03e00008 	jr	ra
a080224c:	00000000 	nop

a0802250 <do_semaphore_down>:
a0802250:	27bdffe8 	addiu	sp,sp,-24
a0802254:	afbf0014 	sw	ra,20(sp)
a0802258:	afbe0010 	sw	s8,16(sp)
a080225c:	03a0f021 	move	s8,sp
a0802260:	afc40018 	sw	a0,24(s8)
a0802264:	8fc20018 	lw	v0,24(s8)
a0802268:	8c420000 	lw	v0,0(v0)
a080226c:	10400008 	beqz	v0,a0802290 <do_semaphore_down+0x40>
a0802270:	00000000 	nop
a0802274:	8fc20018 	lw	v0,24(s8)
a0802278:	8c420000 	lw	v0,0(v0)
a080227c:	2443ffff 	addiu	v1,v0,-1
a0802280:	8fc20018 	lw	v0,24(s8)
a0802284:	ac430000 	sw	v1,0(v0)
a0802288:	082008a9 	j	a08022a4 <do_semaphore_down+0x54>
a080228c:	00000000 	nop
a0802290:	8fc20018 	lw	v0,24(s8)
a0802294:	24420004 	addiu	v0,v0,4
a0802298:	00402021 	move	a0,v0
a080229c:	0c200bae 	jal	a0802eb8 <do_block>
a08022a0:	00000000 	nop
a08022a4:	03c0e821 	move	sp,s8
a08022a8:	8fbf0014 	lw	ra,20(sp)
a08022ac:	8fbe0010 	lw	s8,16(sp)
a08022b0:	27bd0018 	addiu	sp,sp,24
a08022b4:	03e00008 	jr	ra
a08022b8:	00000000 	nop
a08022bc:	00000000 	nop

a08022c0 <free_physical_scope>:
a08022c0:	27bdffe0 	addiu	sp,sp,-32
a08022c4:	afbf001c 	sw	ra,28(sp)
a08022c8:	afbe0018 	sw	s8,24(sp)
a08022cc:	03a0f021 	move	s8,sp
a08022d0:	afc40020 	sw	a0,32(s8)
a08022d4:	afc50024 	sw	a1,36(s8)
a08022d8:	8fc20020 	lw	v0,32(s8)
a08022dc:	00021302 	srl	v0,v0,0xc
a08022e0:	afc20010 	sw	v0,16(s8)
a08022e4:	8fc20010 	lw	v0,16(s8)
a08022e8:	00021300 	sll	v0,v0,0xc
a08022ec:	afc20010 	sw	v0,16(s8)
a08022f0:	082008f0 	j	a08023c0 <free_physical_scope+0x100>
a08022f4:	00000000 	nop
a08022f8:	3c02a081 	lui	v0,0xa081
a08022fc:	8c4283a0 	lw	v0,-31840(v0)
a0802300:	8fc50010 	lw	a1,16(s8)
a0802304:	3c04a081 	lui	a0,0xa081
a0802308:	00021880 	sll	v1,v0,0x2
a080230c:	00031080 	sll	v0,v1,0x2
a0802310:	00431023 	subu	v0,v0,v1
a0802314:	2483c560 	addiu	v1,a0,-15008
a0802318:	00431021 	addu	v0,v0,v1
a080231c:	ac450000 	sw	a1,0(v0)
a0802320:	3c02a081 	lui	v0,0xa081
a0802324:	8c4383a0 	lw	v1,-31840(v0)
a0802328:	3c02a081 	lui	v0,0xa081
a080232c:	2444c560 	addiu	a0,v0,-15008
a0802330:	00601021 	move	v0,v1
a0802334:	00021880 	sll	v1,v0,0x2
a0802338:	00031080 	sll	v0,v1,0x2
a080233c:	00431023 	subu	v0,v0,v1
a0802340:	00821021 	addu	v0,a0,v0
a0802344:	ac400004 	sw	zero,4(v0)
a0802348:	3c02a081 	lui	v0,0xa081
a080234c:	8c4283a0 	lw	v0,-31840(v0)
a0802350:	3c04a081 	lui	a0,0xa081
a0802354:	00021880 	sll	v1,v0,0x2
a0802358:	00031080 	sll	v0,v1,0x2
a080235c:	00431023 	subu	v0,v0,v1
a0802360:	2483c560 	addiu	v1,a0,-15008
a0802364:	00431021 	addu	v0,v0,v1
a0802368:	ac400008 	sw	zero,8(v0)
a080236c:	3c02a081 	lui	v0,0xa081
a0802370:	8c4283a0 	lw	v0,-31840(v0)
a0802374:	00021880 	sll	v1,v0,0x2
a0802378:	00031080 	sll	v0,v1,0x2
a080237c:	00431823 	subu	v1,v0,v1
a0802380:	3c02a081 	lui	v0,0xa081
a0802384:	2442c560 	addiu	v0,v0,-15008
a0802388:	00621821 	addu	v1,v1,v0
a080238c:	3c02a080 	lui	v0,0xa080
a0802390:	244470b0 	addiu	a0,v0,28848
a0802394:	00602821 	move	a1,v1
a0802398:	0c200f08 	jal	a0803c20 <pmem_queue_push>
a080239c:	00000000 	nop
a08023a0:	8fc20010 	lw	v0,16(s8)
a08023a4:	24421000 	addiu	v0,v0,4096
a08023a8:	afc20010 	sw	v0,16(s8)
a08023ac:	3c02a081 	lui	v0,0xa081
a08023b0:	8c4283a0 	lw	v0,-31840(v0)
a08023b4:	24430001 	addiu	v1,v0,1
a08023b8:	3c02a081 	lui	v0,0xa081
a08023bc:	ac4383a0 	sw	v1,-31840(v0)
a08023c0:	8fc20010 	lw	v0,16(s8)
a08023c4:	8fc30024 	lw	v1,36(s8)
a08023c8:	0043102b 	sltu	v0,v0,v1
a08023cc:	10400006 	beqz	v0,a08023e8 <free_physical_scope+0x128>
a08023d0:	00000000 	nop
a08023d4:	3c02a081 	lui	v0,0xa081
a08023d8:	8c4283a0 	lw	v0,-31840(v0)
a08023dc:	2c421000 	sltiu	v0,v0,4096
a08023e0:	1440ffc5 	bnez	v0,a08022f8 <free_physical_scope+0x38>
a08023e4:	00000000 	nop
a08023e8:	03c0e821 	move	sp,s8
a08023ec:	8fbf001c 	lw	ra,28(sp)
a08023f0:	8fbe0018 	lw	s8,24(sp)
a08023f4:	27bd0020 	addiu	sp,sp,32
a08023f8:	03e00008 	jr	ra
a08023fc:	00000000 	nop

a0802400 <palloc>:
a0802400:	27bdffe0 	addiu	sp,sp,-32
a0802404:	afbf001c 	sw	ra,28(sp)
a0802408:	afbe0018 	sw	s8,24(sp)
a080240c:	03a0f021 	move	s8,sp
a0802410:	3c02a080 	lui	v0,0xa080
a0802414:	244470b0 	addiu	a0,v0,28848
a0802418:	0c200f9c 	jal	a0803e70 <pmem_queue_dequeue>
a080241c:	00000000 	nop
a0802420:	afc20010 	sw	v0,16(s8)
a0802424:	3c02a080 	lui	v0,0xa080
a0802428:	244470a0 	addiu	a0,v0,28832
a080242c:	8fc50010 	lw	a1,16(s8)
a0802430:	0c200f08 	jal	a0803c20 <pmem_queue_push>
a0802434:	00000000 	nop
a0802438:	8fc20010 	lw	v0,16(s8)
a080243c:	03c0e821 	move	sp,s8
a0802440:	8fbf001c 	lw	ra,28(sp)
a0802444:	8fbe0018 	lw	s8,24(sp)
a0802448:	27bd0020 	addiu	sp,sp,32
a080244c:	03e00008 	jr	ra
a0802450:	00000000 	nop

a0802454 <pfree>:
a0802454:	27bdffe8 	addiu	sp,sp,-24
a0802458:	afbf0014 	sw	ra,20(sp)
a080245c:	afbe0010 	sw	s8,16(sp)
a0802460:	03a0f021 	move	s8,sp
a0802464:	afc40018 	sw	a0,24(s8)
a0802468:	3c02a080 	lui	v0,0xa080
a080246c:	244470a0 	addiu	a0,v0,28832
a0802470:	8fc50018 	lw	a1,24(s8)
a0802474:	0c201098 	jal	a0804260 <pmem_queue_remove>
a0802478:	00000000 	nop
a080247c:	3c02a080 	lui	v0,0xa080
a0802480:	244470b0 	addiu	a0,v0,28848
a0802484:	8fc50018 	lw	a1,24(s8)
a0802488:	0c200f08 	jal	a0803c20 <pmem_queue_push>
a080248c:	00000000 	nop
a0802490:	03c0e821 	move	sp,s8
a0802494:	8fbf0014 	lw	ra,20(sp)
a0802498:	8fbe0010 	lw	s8,16(sp)
a080249c:	27bd0018 	addiu	sp,sp,24
a08024a0:	03e00008 	jr	ra
a08024a4:	00000000 	nop

a08024a8 <fill_static_page_table>:
a08024a8:	27bdffd8 	addiu	sp,sp,-40
a08024ac:	afbf0024 	sw	ra,36(sp)
a08024b0:	afbe0020 	sw	s8,32(sp)
a08024b4:	03a0f021 	move	s8,sp
a08024b8:	afc00014 	sw	zero,20(s8)
a08024bc:	afc00010 	sw	zero,16(s8)
a08024c0:	08200946 	j	a0802518 <fill_static_page_table+0x70>
a08024c4:	00000000 	nop
a08024c8:	0c200900 	jal	a0802400 <palloc>
a08024cc:	00000000 	nop
a08024d0:	afc20018 	sw	v0,24(s8)
a08024d4:	8fc20014 	lw	v0,20(s8)
a08024d8:	00022b03 	sra	a1,v0,0xc
a08024dc:	8fc20018 	lw	v0,24(s8)
a08024e0:	8c430000 	lw	v1,0(v0)
a08024e4:	2402f000 	li	v0,-4096
a08024e8:	00622024 	and	a0,v1,v0
a08024ec:	3c02a082 	lui	v0,0xa082
a08024f0:	00051880 	sll	v1,a1,0x2
a08024f4:	24428560 	addiu	v0,v0,-31392
a08024f8:	00621021 	addu	v0,v1,v0
a08024fc:	ac440000 	sw	a0,0(v0)
a0802500:	8fc20010 	lw	v0,16(s8)
a0802504:	24420001 	addiu	v0,v0,1
a0802508:	afc20010 	sw	v0,16(s8)
a080250c:	8fc20014 	lw	v0,20(s8)
a0802510:	24421000 	addiu	v0,v0,4096
a0802514:	afc20014 	sw	v0,20(s8)
a0802518:	8fc20010 	lw	v0,16(s8)
a080251c:	28420100 	slti	v0,v0,256
a0802520:	1440ffe9 	bnez	v0,a08024c8 <fill_static_page_table+0x20>
a0802524:	00000000 	nop
a0802528:	03c0e821 	move	sp,s8
a080252c:	8fbf0024 	lw	ra,36(sp)
a0802530:	8fbe0020 	lw	s8,32(sp)
a0802534:	27bd0028 	addiu	sp,sp,40
a0802538:	03e00008 	jr	ra
a080253c:	00000000 	nop

a0802540 <init_static_TLB>:
a0802540:	27bdffd0 	addiu	sp,sp,-48
a0802544:	afbf002c 	sw	ra,44(sp)
a0802548:	afbe0028 	sw	s8,40(sp)
a080254c:	03a0f021 	move	s8,sp
a0802550:	a3c00024 	sb	zero,36(s8)
a0802554:	0c2000ca 	jal	a0800328 <SET_CP0_PAGEMASK>
a0802558:	00002021 	move	a0,zero
a080255c:	afc00014 	sw	zero,20(s8)
a0802560:	08200988 	j	a0802620 <init_static_TLB+0xe0>
a0802564:	afc00010 	sw	zero,16(s8)
a0802568:	8fc30014 	lw	v1,20(s8)
a080256c:	2402e000 	li	v0,-8192
a0802570:	00621824 	and	v1,v1,v0
a0802574:	93c20024 	lbu	v0,36(s8)
a0802578:	00621025 	or	v0,v1,v0
a080257c:	afc20020 	sw	v0,32(s8)
a0802580:	8fc20010 	lw	v0,16(s8)
a0802584:	3c03a082 	lui	v1,0xa082
a0802588:	00022080 	sll	a0,v0,0x2
a080258c:	24628560 	addiu	v0,v1,-31392
a0802590:	00821021 	addu	v0,a0,v0
a0802594:	8c420000 	lw	v0,0(v0)
a0802598:	00021302 	srl	v0,v0,0xc
a080259c:	00021180 	sll	v0,v0,0x6
a08025a0:	34420017 	ori	v0,v0,0x17
a08025a4:	afc2001c 	sw	v0,28(s8)
a08025a8:	8fc20010 	lw	v0,16(s8)
a08025ac:	24420001 	addiu	v0,v0,1
a08025b0:	3c03a082 	lui	v1,0xa082
a08025b4:	00022080 	sll	a0,v0,0x2
a08025b8:	24628560 	addiu	v0,v1,-31392
a08025bc:	00821021 	addu	v0,a0,v0
a08025c0:	8c420000 	lw	v0,0(v0)
a08025c4:	00021302 	srl	v0,v0,0xc
a08025c8:	00021180 	sll	v0,v0,0x6
a08025cc:	34420017 	ori	v0,v0,0x17
a08025d0:	afc20018 	sw	v0,24(s8)
a08025d4:	0c2000b8 	jal	a08002e0 <SET_CP0_ENTRYHI>
a08025d8:	8fc40020 	lw	a0,32(s8)
a08025dc:	0c2000be 	jal	a08002f8 <SET_CP0_ENTRYLO0>
a08025e0:	8fc4001c 	lw	a0,28(s8)
a08025e4:	0c2000c4 	jal	a0800310 <SET_CP0_ENTRYLO1>
a08025e8:	8fc40018 	lw	a0,24(s8)
a08025ec:	8fc30010 	lw	v1,16(s8)
a08025f0:	000317c2 	srl	v0,v1,0x1f
a08025f4:	00431021 	addu	v0,v0,v1
a08025f8:	00021043 	sra	v0,v0,0x1
a08025fc:	0c2000d1 	jal	a0800344 <SET_CP0_INDEX>
a0802600:	00402021 	move	a0,v0
a0802604:	42000002 	tlbwi
a0802608:	8fc20010 	lw	v0,16(s8)
a080260c:	24420002 	addiu	v0,v0,2
a0802610:	afc20010 	sw	v0,16(s8)
a0802614:	8fc20014 	lw	v0,20(s8)
a0802618:	24422000 	addiu	v0,v0,8192
a080261c:	afc20014 	sw	v0,20(s8)
a0802620:	8fc20010 	lw	v0,16(s8)
a0802624:	28420040 	slti	v0,v0,64
a0802628:	1440ffcf 	bnez	v0,a0802568 <init_static_TLB+0x28>
a080262c:	00000000 	nop
a0802630:	03c0e821 	move	sp,s8
a0802634:	8fbf002c 	lw	ra,44(sp)
a0802638:	8fbe0028 	lw	s8,40(sp)
a080263c:	03e00008 	jr	ra
a0802640:	27bd0030 	addiu	sp,sp,48

a0802644 <fill_page_table>:
a0802644:	27bdffd8 	addiu	sp,sp,-40
a0802648:	afbf0024 	sw	ra,36(sp)
a080264c:	afbe0020 	sw	s8,32(sp)
a0802650:	03a0f021 	move	s8,sp
a0802654:	24020017 	li	v0,23
a0802658:	afc20010 	sw	v0,16(s8)
a080265c:	24021000 	li	v0,4096
a0802660:	afc20018 	sw	v0,24(s8)
a0802664:	afc00014 	sw	zero,20(s8)
a0802668:	082009b4 	j	a08026d0 <fill_page_table+0x8c>
a080266c:	00000000 	nop
a0802670:	0c200900 	jal	a0802400 <palloc>
a0802674:	00000000 	nop
a0802678:	afc2001c 	sw	v0,28(s8)
a080267c:	8fc20018 	lw	v0,24(s8)
a0802680:	00022b03 	sra	a1,v0,0xc
a0802684:	8fc2001c 	lw	v0,28(s8)
a0802688:	8c430000 	lw	v1,0(v0)
a080268c:	2402f000 	li	v0,-4096
a0802690:	00621824 	and	v1,v1,v0
a0802694:	8fc20010 	lw	v0,16(s8)
a0802698:	00021180 	sll	v0,v0,0x6
a080269c:	00621025 	or	v0,v1,v0
a08026a0:	34440020 	ori	a0,v0,0x20
a08026a4:	3c02a081 	lui	v0,0xa081
a08026a8:	00051880 	sll	v1,a1,0x2
a08026ac:	244283d0 	addiu	v0,v0,-31792
a08026b0:	00621021 	addu	v0,v1,v0
a08026b4:	ac440000 	sw	a0,0(v0)
a08026b8:	8fc20014 	lw	v0,20(s8)
a08026bc:	24420001 	addiu	v0,v0,1
a08026c0:	afc20014 	sw	v0,20(s8)
a08026c4:	8fc20018 	lw	v0,24(s8)
a08026c8:	24421000 	addiu	v0,v0,4096
a08026cc:	afc20018 	sw	v0,24(s8)
a08026d0:	8fc20014 	lw	v0,20(s8)
a08026d4:	28420800 	slti	v0,v0,2048
a08026d8:	1440ffe5 	bnez	v0,a0802670 <fill_page_table+0x2c>
a08026dc:	00000000 	nop
a08026e0:	082009c7 	j	a080271c <fill_page_table+0xd8>
a08026e4:	00000000 	nop
a08026e8:	8fc20018 	lw	v0,24(s8)
a08026ec:	00021303 	sra	v0,v0,0xc
a08026f0:	3c03a081 	lui	v1,0xa081
a08026f4:	00022080 	sll	a0,v0,0x2
a08026f8:	246283d0 	addiu	v0,v1,-31792
a08026fc:	00821021 	addu	v0,a0,v0
a0802700:	ac400000 	sw	zero,0(v0)
a0802704:	8fc20014 	lw	v0,20(s8)
a0802708:	24420001 	addiu	v0,v0,1
a080270c:	afc20014 	sw	v0,20(s8)
a0802710:	8fc20018 	lw	v0,24(s8)
a0802714:	24421000 	addiu	v0,v0,4096
a0802718:	afc20018 	sw	v0,24(s8)
a080271c:	8fc20014 	lw	v0,20(s8)
a0802720:	28421000 	slti	v0,v0,4096
a0802724:	1440fff0 	bnez	v0,a08026e8 <fill_page_table+0xa4>
a0802728:	00000000 	nop
a080272c:	03c0e821 	move	sp,s8
a0802730:	8fbf0024 	lw	ra,36(sp)
a0802734:	8fbe0020 	lw	s8,32(sp)
a0802738:	27bd0028 	addiu	sp,sp,40
a080273c:	03e00008 	jr	ra
a0802740:	00000000 	nop

a0802744 <init_TLB>:
a0802744:	27bdffe0 	addiu	sp,sp,-32
a0802748:	afbf001c 	sw	ra,28(sp)
a080274c:	afbe0018 	sw	s8,24(sp)
a0802750:	03a0f021 	move	s8,sp
a0802754:	0c2000ca 	jal	a0800328 <SET_CP0_PAGEMASK>
a0802758:	00002021 	move	a0,zero
a080275c:	0c2000b8 	jal	a08002e0 <SET_CP0_ENTRYHI>
a0802760:	00002021 	move	a0,zero
a0802764:	0c2000be 	jal	a08002f8 <SET_CP0_ENTRYLO0>
a0802768:	00002021 	move	a0,zero
a080276c:	0c2000c4 	jal	a0800310 <SET_CP0_ENTRYLO1>
a0802770:	00002021 	move	a0,zero
a0802774:	082009e5 	j	a0802794 <init_TLB+0x50>
a0802778:	afc00010 	sw	zero,16(s8)
a080277c:	0c2000d1 	jal	a0800344 <SET_CP0_INDEX>
a0802780:	8fc40010 	lw	a0,16(s8)
a0802784:	42000002 	tlbwi
a0802788:	8fc20010 	lw	v0,16(s8)
a080278c:	24420001 	addiu	v0,v0,1
a0802790:	afc20010 	sw	v0,16(s8)
a0802794:	8fc20010 	lw	v0,16(s8)
a0802798:	28420020 	slti	v0,v0,32
a080279c:	1440fff7 	bnez	v0,a080277c <init_TLB+0x38>
a08027a0:	00000000 	nop
a08027a4:	03c0e821 	move	sp,s8
a08027a8:	8fbf001c 	lw	ra,28(sp)
a08027ac:	8fbe0018 	lw	s8,24(sp)
a08027b0:	03e00008 	jr	ra
a08027b4:	27bd0020 	addiu	sp,sp,32

a08027b8 <do_TLB_Refill>:
a08027b8:	27bdffc0 	addiu	sp,sp,-64
a08027bc:	afbf003c 	sw	ra,60(sp)
a08027c0:	afbe0038 	sw	s8,56(sp)
a08027c4:	03a0f021 	move	s8,sp
a08027c8:	00002021 	move	a0,zero
a08027cc:	0c2002ec 	jal	a0800bb0 <vt100_move_cursor>
a08027d0:	00002821 	move	a1,zero
a08027d4:	3c02a081 	lui	v0,0xa081
a08027d8:	8c4383a4 	lw	v1,-31836(v0)
a08027dc:	3c02a080 	lui	v0,0xa080
a08027e0:	24446bc0 	addiu	a0,v0,27584
a08027e4:	0c201719 	jal	a0805c64 <printk>
a08027e8:	00602821 	move	a1,v1
a08027ec:	3c02a081 	lui	v0,0xa081
a08027f0:	8c4283a4 	lw	v0,-31836(v0)
a08027f4:	24430001 	addiu	v1,v0,1
a08027f8:	3c02a081 	lui	v0,0xa081
a08027fc:	ac4383a4 	sw	v1,-31836(v0)
a0802800:	24020017 	li	v0,23
a0802804:	0c2000b5 	jal	a08002d4 <GET_CP0_ENTRYHI>
a0802808:	afc20030 	sw	v0,48(s8)
a080280c:	0c2000f0 	jal	a08003c0 <GET_CP0_CONTEXT>
a0802810:	afc2002c 	sw	v0,44(s8)
a0802814:	0c2000f6 	jal	a08003d8 <GET_CP0_BADVADDR>
a0802818:	afc2001c 	sw	v0,28(s8)
a080281c:	afc20018 	sw	v0,24(s8)
a0802820:	8fc20018 	lw	v0,24(s8)
a0802824:	00021b02 	srl	v1,v0,0xc
a0802828:	2402fffe 	li	v0,-2
a080282c:	00621024 	and	v0,v1,v0
a0802830:	3c03a081 	lui	v1,0xa081
a0802834:	00022080 	sll	a0,v0,0x2
a0802838:	246283d0 	addiu	v0,v1,-31792
a080283c:	00821021 	addu	v0,a0,v0
a0802840:	8c420000 	lw	v0,0(v0)
a0802844:	afc20014 	sw	v0,20(s8)
a0802848:	8fc20018 	lw	v0,24(s8)
a080284c:	00021302 	srl	v0,v0,0xc
a0802850:	34420001 	ori	v0,v0,0x1
a0802854:	3c03a081 	lui	v1,0xa081
a0802858:	00022080 	sll	a0,v0,0x2
a080285c:	246283d0 	addiu	v0,v1,-31792
a0802860:	00821021 	addu	v0,a0,v0
a0802864:	8c420000 	lw	v0,0(v0)
a0802868:	afc20010 	sw	v0,16(s8)
a080286c:	3c02a080 	lui	v0,0xa080
a0802870:	8c4270cc 	lw	v0,28876(v0)
a0802874:	8c420148 	lw	v0,328(v0)
a0802878:	304300ff 	andi	v1,v0,0xff
a080287c:	8fc2002c 	lw	v0,44(s8)
a0802880:	00621025 	or	v0,v1,v0
a0802884:	0c2000b8 	jal	a08002e0 <SET_CP0_ENTRYHI>
a0802888:	00402021 	move	a0,v0
a080288c:	0c2000cd 	jal	a0800334 <GET_CP0_INDEX>
a0802890:	42000008 	tlbp
a0802894:	afc20020 	sw	v0,32(s8)
a0802898:	8fc20020 	lw	v0,32(s8)
a080289c:	0441001d 	bgez	v0,a0802914 <do_TLB_Refill+0x15c>
a08028a0:	00000000 	nop
a08028a4:	3c02a080 	lui	v0,0xa080
a08028a8:	8c4270cc 	lw	v0,28876(v0)
a08028ac:	8c420148 	lw	v0,328(v0)
a08028b0:	3842000f 	xori	v0,v0,0xf
a08028b4:	2c430001 	sltiu	v1,v0,1
a08028b8:	8fc20014 	lw	v0,20(s8)
a08028bc:	00621824 	and	v1,v1,v0
a08028c0:	8fc20014 	lw	v0,20(s8)
a08028c4:	00621024 	and	v0,v1,v0
a08028c8:	30420010 	andi	v0,v0,0x10
a08028cc:	1040000d 	beqz	v0,a0802904 <do_TLB_Refill+0x14c>
a08028d0:	00000000 	nop
a08028d4:	8fc20014 	lw	v0,20(s8)
a08028d8:	00021182 	srl	v0,v0,0x6
a08028dc:	afc20028 	sw	v0,40(s8)
a08028e0:	8fc20010 	lw	v0,16(s8)
a08028e4:	00021182 	srl	v0,v0,0x6
a08028e8:	afc20024 	sw	v0,36(s8)
a08028ec:	0c2000be 	jal	a08002f8 <SET_CP0_ENTRYLO0>
a08028f0:	8fc40028 	lw	a0,40(s8)
a08028f4:	0c2000c4 	jal	a0800310 <SET_CP0_ENTRYLO1>
a08028f8:	8fc40024 	lw	a0,36(s8)
a08028fc:	08200a5f 	j	a080297c <do_TLB_Refill+0x1c4>
a0802900:	42000006 	tlbwr
a0802904:	0c200a64 	jal	a0802990 <do_page_fault>
a0802908:	8fc40018 	lw	a0,24(s8)
a080290c:	08200a5f 	j	a080297c <do_TLB_Refill+0x1c4>
a0802910:	00000000 	nop
a0802914:	3c02a080 	lui	v0,0xa080
a0802918:	8c4270cc 	lw	v0,28876(v0)
a080291c:	8c420148 	lw	v0,328(v0)
a0802920:	3842000f 	xori	v0,v0,0xf
a0802924:	2c430001 	sltiu	v1,v0,1
a0802928:	8fc20014 	lw	v0,20(s8)
a080292c:	00621824 	and	v1,v1,v0
a0802930:	8fc20014 	lw	v0,20(s8)
a0802934:	00621024 	and	v0,v1,v0
a0802938:	30420010 	andi	v0,v0,0x10
a080293c:	1040000d 	beqz	v0,a0802974 <do_TLB_Refill+0x1bc>
a0802940:	00000000 	nop
a0802944:	8fc20014 	lw	v0,20(s8)
a0802948:	00021182 	srl	v0,v0,0x6
a080294c:	afc20028 	sw	v0,40(s8)
a0802950:	8fc20010 	lw	v0,16(s8)
a0802954:	00021182 	srl	v0,v0,0x6
a0802958:	afc20024 	sw	v0,36(s8)
a080295c:	0c2000be 	jal	a08002f8 <SET_CP0_ENTRYLO0>
a0802960:	8fc40028 	lw	a0,40(s8)
a0802964:	0c2000c4 	jal	a0800310 <SET_CP0_ENTRYLO1>
a0802968:	8fc40024 	lw	a0,36(s8)
a080296c:	08200a5f 	j	a080297c <do_TLB_Refill+0x1c4>
a0802970:	42000002 	tlbwi
a0802974:	0c200a64 	jal	a0802990 <do_page_fault>
a0802978:	8fc40018 	lw	a0,24(s8)
a080297c:	03c0e821 	move	sp,s8
a0802980:	8fbf003c 	lw	ra,60(sp)
a0802984:	8fbe0038 	lw	s8,56(sp)
a0802988:	03e00008 	jr	ra
a080298c:	27bd0040 	addiu	sp,sp,64

a0802990 <do_page_fault>:
a0802990:	27bdffc8 	addiu	sp,sp,-56
a0802994:	afbf0034 	sw	ra,52(sp)
a0802998:	afbe0030 	sw	s8,48(sp)
a080299c:	03a0f021 	move	s8,sp
a08029a0:	afc40038 	sw	a0,56(s8)
a08029a4:	00002021 	move	a0,zero
a08029a8:	0c2002ec 	jal	a0800bb0 <vt100_move_cursor>
a08029ac:	00002821 	move	a1,zero
a08029b0:	3c02a081 	lui	v0,0xa081
a08029b4:	8c4383a8 	lw	v1,-31832(v0)
a08029b8:	3c02a080 	lui	v0,0xa080
a08029bc:	24446be8 	addiu	a0,v0,27624
a08029c0:	0c201719 	jal	a0805c64 <printk>
a08029c4:	00602821 	move	a1,v1
a08029c8:	3c02a081 	lui	v0,0xa081
a08029cc:	8c4283a8 	lw	v0,-31832(v0)
a08029d0:	24430001 	addiu	v1,v0,1
a08029d4:	3c02a081 	lui	v0,0xa081
a08029d8:	ac4383a8 	sw	v1,-31832(v0)
a08029dc:	24020017 	li	v0,23
a08029e0:	afc20028 	sw	v0,40(s8)
a08029e4:	3c02a080 	lui	v0,0xa080
a08029e8:	8c4270b0 	lw	v0,28848(v0)
a08029ec:	1040005b 	beqz	v0,a0802b5c <do_page_fault+0x1cc>
a08029f0:	00000000 	nop
a08029f4:	0c200900 	jal	a0802400 <palloc>
a08029f8:	00000000 	nop
a08029fc:	afc20018 	sw	v0,24(s8)
a0802a00:	8fc20038 	lw	v0,56(s8)
a0802a04:	00021b02 	srl	v1,v0,0xc
a0802a08:	2402fffe 	li	v0,-2
a0802a0c:	00622824 	and	a1,v1,v0
a0802a10:	8fc20018 	lw	v0,24(s8)
a0802a14:	8c430000 	lw	v1,0(v0)
a0802a18:	2402f000 	li	v0,-4096
a0802a1c:	00621824 	and	v1,v1,v0
a0802a20:	8fc20028 	lw	v0,40(s8)
a0802a24:	00021180 	sll	v0,v0,0x6
a0802a28:	00621825 	or	v1,v1,v0
a0802a2c:	3c02a080 	lui	v0,0xa080
a0802a30:	8c4270cc 	lw	v0,28876(v0)
a0802a34:	8c420148 	lw	v0,328(v0)
a0802a38:	3042001f 	andi	v0,v0,0x1f
a0802a3c:	00621025 	or	v0,v1,v0
a0802a40:	34440020 	ori	a0,v0,0x20
a0802a44:	3c02a081 	lui	v0,0xa081
a0802a48:	00051880 	sll	v1,a1,0x2
a0802a4c:	244283d0 	addiu	v0,v0,-31792
a0802a50:	00621021 	addu	v0,v1,v0
a0802a54:	0c200900 	jal	a0802400 <palloc>
a0802a58:	ac440000 	sw	a0,0(v0)
a0802a5c:	afc20018 	sw	v0,24(s8)
a0802a60:	8fc20038 	lw	v0,56(s8)
a0802a64:	00021302 	srl	v0,v0,0xc
a0802a68:	34450001 	ori	a1,v0,0x1
a0802a6c:	8fc20018 	lw	v0,24(s8)
a0802a70:	8c430000 	lw	v1,0(v0)
a0802a74:	2402f000 	li	v0,-4096
a0802a78:	00621824 	and	v1,v1,v0
a0802a7c:	8fc20028 	lw	v0,40(s8)
a0802a80:	00021180 	sll	v0,v0,0x6
a0802a84:	00621825 	or	v1,v1,v0
a0802a88:	3c02a080 	lui	v0,0xa080
a0802a8c:	8c4270cc 	lw	v0,28876(v0)
a0802a90:	8c420148 	lw	v0,328(v0)
a0802a94:	3042001f 	andi	v0,v0,0x1f
a0802a98:	00621025 	or	v0,v1,v0
a0802a9c:	34440020 	ori	a0,v0,0x20
a0802aa0:	3c02a081 	lui	v0,0xa081
a0802aa4:	00051880 	sll	v1,a1,0x2
a0802aa8:	244283d0 	addiu	v0,v0,-31792
a0802aac:	00621021 	addu	v0,v1,v0
a0802ab0:	ac440000 	sw	a0,0(v0)
a0802ab4:	8fc20038 	lw	v0,56(s8)
a0802ab8:	00021b02 	srl	v1,v0,0xc
a0802abc:	2402fffe 	li	v0,-2
a0802ac0:	00621024 	and	v0,v1,v0
a0802ac4:	3c03a081 	lui	v1,0xa081
a0802ac8:	00022080 	sll	a0,v0,0x2
a0802acc:	246283d0 	addiu	v0,v1,-31792
a0802ad0:	00821021 	addu	v0,a0,v0
a0802ad4:	8c420000 	lw	v0,0(v0)
a0802ad8:	afc20014 	sw	v0,20(s8)
a0802adc:	8fc20038 	lw	v0,56(s8)
a0802ae0:	00021302 	srl	v0,v0,0xc
a0802ae4:	34420001 	ori	v0,v0,0x1
a0802ae8:	3c03a081 	lui	v1,0xa081
a0802aec:	00022080 	sll	a0,v0,0x2
a0802af0:	246283d0 	addiu	v0,v1,-31792
a0802af4:	00821021 	addu	v0,a0,v0
a0802af8:	8c420000 	lw	v0,0(v0)
a0802afc:	afc20010 	sw	v0,16(s8)
a0802b00:	8fc30038 	lw	v1,56(s8)
a0802b04:	2402e000 	li	v0,-8192
a0802b08:	00621824 	and	v1,v1,v0
a0802b0c:	3c02a080 	lui	v0,0xa080
a0802b10:	8c4270cc 	lw	v0,28876(v0)
a0802b14:	8c420148 	lw	v0,328(v0)
a0802b18:	304200ff 	andi	v0,v0,0xff
a0802b1c:	00621025 	or	v0,v1,v0
a0802b20:	afc20024 	sw	v0,36(s8)
a0802b24:	8fc20014 	lw	v0,20(s8)
a0802b28:	00021182 	srl	v0,v0,0x6
a0802b2c:	afc20020 	sw	v0,32(s8)
a0802b30:	8fc20010 	lw	v0,16(s8)
a0802b34:	00021182 	srl	v0,v0,0x6
a0802b38:	afc2001c 	sw	v0,28(s8)
a0802b3c:	0c2000b8 	jal	a08002e0 <SET_CP0_ENTRYHI>
a0802b40:	8fc40024 	lw	a0,36(s8)
a0802b44:	0c2000be 	jal	a08002f8 <SET_CP0_ENTRYLO0>
a0802b48:	8fc40020 	lw	a0,32(s8)
a0802b4c:	0c2000c4 	jal	a0800310 <SET_CP0_ENTRYLO1>
a0802b50:	8fc4001c 	lw	a0,28(s8)
a0802b54:	08200ad9 	j	a0802b64 <do_page_fault+0x1d4>
a0802b58:	42000002 	tlbwi
a0802b5c:	0c200ade 	jal	a0802b78 <swap_page>
a0802b60:	8fc40038 	lw	a0,56(s8)
a0802b64:	03c0e821 	move	sp,s8
a0802b68:	8fbf0034 	lw	ra,52(sp)
a0802b6c:	8fbe0030 	lw	s8,48(sp)
a0802b70:	03e00008 	jr	ra
a0802b74:	27bd0038 	addiu	sp,sp,56

a0802b78 <swap_page>:
a0802b78:	27bdffe0 	addiu	sp,sp,-32
a0802b7c:	afbf001c 	sw	ra,28(sp)
a0802b80:	afbe0018 	sw	s8,24(sp)
a0802b84:	03a0f021 	move	s8,sp
a0802b88:	afc40020 	sw	a0,32(s8)
a0802b8c:	00002021 	move	a0,zero
a0802b90:	00002821 	move	a1,zero
a0802b94:	0c2002ec 	jal	a0800bb0 <vt100_move_cursor>
a0802b98:	00000000 	nop
a0802b9c:	3c02a081 	lui	v0,0xa081
a0802ba0:	8c4383ac 	lw	v1,-31828(v0)
a0802ba4:	3c02a080 	lui	v0,0xa080
a0802ba8:	24446c0c 	addiu	a0,v0,27660
a0802bac:	00602821 	move	a1,v1
a0802bb0:	0c201719 	jal	a0805c64 <printk>
a0802bb4:	00000000 	nop
a0802bb8:	3c02a081 	lui	v0,0xa081
a0802bbc:	8c4283ac 	lw	v0,-31828(v0)
a0802bc0:	24430001 	addiu	v1,v0,1
a0802bc4:	3c02a081 	lui	v0,0xa081
a0802bc8:	ac4383ac 	sw	v1,-31828(v0)
a0802bcc:	3c02a080 	lui	v0,0xa080
a0802bd0:	244470a0 	addiu	a0,v0,28832
a0802bd4:	0c200f9c 	jal	a0803e70 <pmem_queue_dequeue>
a0802bd8:	00000000 	nop
a0802bdc:	afc20010 	sw	v0,16(s8)
a0802be0:	03c0e821 	move	sp,s8
a0802be4:	8fbf001c 	lw	ra,28(sp)
a0802be8:	8fbe0018 	lw	s8,24(sp)
a0802bec:	27bd0020 	addiu	sp,sp,32
a0802bf0:	03e00008 	jr	ra
a0802bf4:	00000000 	nop
	...

a0802c00 <check_sleeping>:
a0802c00:	27bdffd8 	addiu	sp,sp,-40
a0802c04:	afbf0024 	sw	ra,36(sp)
a0802c08:	afbe0020 	sw	s8,32(sp)
a0802c0c:	03a0f021 	move	s8,sp
a0802c10:	3c02a080 	lui	v0,0xa080
a0802c14:	8c4270c0 	lw	v0,28864(v0)
a0802c18:	afc20018 	sw	v0,24(s8)
a0802c1c:	0c20112e 	jal	a08044b8 <get_timer>
a0802c20:	00000000 	nop
a0802c24:	afc20014 	sw	v0,20(s8)
a0802c28:	08200b2c 	j	a0802cb0 <check_sleeping+0xb0>
a0802c2c:	00000000 	nop
a0802c30:	8fc20018 	lw	v0,24(s8)
a0802c34:	8c420164 	lw	v0,356(v0)
a0802c38:	00402021 	move	a0,v0
a0802c3c:	8fc20018 	lw	v0,24(s8)
a0802c40:	8c420160 	lw	v0,352(v0)
a0802c44:	00401821 	move	v1,v0
a0802c48:	8fc20014 	lw	v0,20(s8)
a0802c4c:	00431023 	subu	v0,v0,v1
a0802c50:	0044102b 	sltu	v0,v0,a0
a0802c54:	14400013 	bnez	v0,a0802ca4 <check_sleeping+0xa4>
a0802c58:	00000000 	nop
a0802c5c:	3c02a080 	lui	v0,0xa080
a0802c60:	244470c0 	addiu	a0,v0,28864
a0802c64:	8fc50018 	lw	a1,24(s8)
a0802c68:	0c20104c 	jal	a0804130 <queue_remove>
a0802c6c:	00000000 	nop
a0802c70:	afc20010 	sw	v0,16(s8)
a0802c74:	8fc20018 	lw	v0,24(s8)
a0802c78:	ac400164 	sw	zero,356(v0)
a0802c7c:	8fc30018 	lw	v1,24(s8)
a0802c80:	24020002 	li	v0,2
a0802c84:	ac620150 	sw	v0,336(v1)
a0802c88:	8fc40018 	lw	a0,24(s8)
a0802c8c:	0c200f33 	jal	a0803ccc <priority_queue_push>
a0802c90:	00000000 	nop
a0802c94:	8fc20010 	lw	v0,16(s8)
a0802c98:	afc20018 	sw	v0,24(s8)
a0802c9c:	08200b2c 	j	a0802cb0 <check_sleeping+0xb0>
a0802ca0:	00000000 	nop
a0802ca4:	8fc20018 	lw	v0,24(s8)
a0802ca8:	8c420144 	lw	v0,324(v0)
a0802cac:	afc20018 	sw	v0,24(s8)
a0802cb0:	3c02a080 	lui	v0,0xa080
a0802cb4:	244470c0 	addiu	a0,v0,28864
a0802cb8:	0c200ecb 	jal	a0803b2c <queue_is_empty>
a0802cbc:	00000000 	nop
a0802cc0:	14400004 	bnez	v0,a0802cd4 <check_sleeping+0xd4>
a0802cc4:	00000000 	nop
a0802cc8:	8fc20018 	lw	v0,24(s8)
a0802ccc:	1440ffd8 	bnez	v0,a0802c30 <check_sleeping+0x30>
a0802cd0:	00000000 	nop
a0802cd4:	03c0e821 	move	sp,s8
a0802cd8:	8fbf0024 	lw	ra,36(sp)
a0802cdc:	8fbe0020 	lw	s8,32(sp)
a0802ce0:	27bd0028 	addiu	sp,sp,40
a0802ce4:	03e00008 	jr	ra
a0802ce8:	00000000 	nop

a0802cec <scheduler>:
a0802cec:	27bdffe0 	addiu	sp,sp,-32
a0802cf0:	afbf001c 	sw	ra,28(sp)
a0802cf4:	afbe0018 	sw	s8,24(sp)
a0802cf8:	03a0f021 	move	s8,sp
a0802cfc:	0c200b00 	jal	a0802c00 <check_sleeping>
a0802d00:	00000000 	nop
a0802d04:	3c02a080 	lui	v0,0xa080
a0802d08:	8c4370cc 	lw	v1,28876(v0)
a0802d0c:	3c02a080 	lui	v0,0xa080
a0802d10:	8c427090 	lw	v0,28816(v0)
a0802d14:	ac620154 	sw	v0,340(v1)
a0802d18:	3c02a080 	lui	v0,0xa080
a0802d1c:	8c4370cc 	lw	v1,28876(v0)
a0802d20:	3c02a080 	lui	v0,0xa080
a0802d24:	8c427094 	lw	v0,28820(v0)
a0802d28:	ac620158 	sw	v0,344(v1)
a0802d2c:	3c02a080 	lui	v0,0xa080
a0802d30:	8c4270cc 	lw	v0,28876(v0)
a0802d34:	8c430150 	lw	v1,336(v0)
a0802d38:	24020001 	li	v0,1
a0802d3c:	1462001b 	bne	v1,v0,a0802dac <scheduler+0xc0>
a0802d40:	00000000 	nop
a0802d44:	3c02a080 	lui	v0,0xa080
a0802d48:	8c4370cc 	lw	v1,28876(v0)
a0802d4c:	24020002 	li	v0,2
a0802d50:	ac620150 	sw	v0,336(v1)
a0802d54:	3c02a080 	lui	v0,0xa080
a0802d58:	8c4270cc 	lw	v0,28876(v0)
a0802d5c:	00402021 	move	a0,v0
a0802d60:	0c200f33 	jal	a0803ccc <priority_queue_push>
a0802d64:	00000000 	nop
a0802d68:	0c200fc1 	jal	a0803f04 <priority_queue_dequeue>
a0802d6c:	00000000 	nop
a0802d70:	afc20010 	sw	v0,16(s8)
a0802d74:	8fc20010 	lw	v0,16(s8)
a0802d78:	8c430150 	lw	v1,336(v0)
a0802d7c:	24020002 	li	v0,2
a0802d80:	1462fff9 	bne	v1,v0,a0802d68 <scheduler+0x7c>
a0802d84:	00000000 	nop
a0802d88:	3c03a080 	lui	v1,0xa080
a0802d8c:	8fc20010 	lw	v0,16(s8)
a0802d90:	ac6270cc 	sw	v0,28876(v1)
a0802d94:	3c02a080 	lui	v0,0xa080
a0802d98:	8c4370cc 	lw	v1,28876(v0)
a0802d9c:	24020001 	li	v0,1
a0802da0:	ac620150 	sw	v0,336(v1)
a0802da4:	08200b74 	j	a0802dd0 <scheduler+0xe4>
a0802da8:	00000000 	nop
a0802dac:	0c200fc1 	jal	a0803f04 <priority_queue_dequeue>
a0802db0:	00000000 	nop
a0802db4:	00401821 	move	v1,v0
a0802db8:	3c02a080 	lui	v0,0xa080
a0802dbc:	ac4370cc 	sw	v1,28876(v0)
a0802dc0:	3c02a080 	lui	v0,0xa080
a0802dc4:	8c4370cc 	lw	v1,28876(v0)
a0802dc8:	24020001 	li	v0,1
a0802dcc:	ac620150 	sw	v0,336(v1)
a0802dd0:	3c02a080 	lui	v0,0xa080
a0802dd4:	8c4270cc 	lw	v0,28876(v0)
a0802dd8:	8c430154 	lw	v1,340(v0)
a0802ddc:	3c02a080 	lui	v0,0xa080
a0802de0:	ac437090 	sw	v1,28816(v0)
a0802de4:	3c02a080 	lui	v0,0xa080
a0802de8:	8c4270cc 	lw	v0,28876(v0)
a0802dec:	8c430158 	lw	v1,344(v0)
a0802df0:	3c02a080 	lui	v0,0xa080
a0802df4:	ac437094 	sw	v1,28820(v0)
a0802df8:	03c0e821 	move	sp,s8
a0802dfc:	8fbf001c 	lw	ra,28(sp)
a0802e00:	8fbe0018 	lw	s8,24(sp)
a0802e04:	27bd0020 	addiu	sp,sp,32
a0802e08:	03e00008 	jr	ra
a0802e0c:	00000000 	nop

a0802e10 <do_sleep>:
a0802e10:	27bdffe0 	addiu	sp,sp,-32
a0802e14:	afbf001c 	sw	ra,28(sp)
a0802e18:	afbe0018 	sw	s8,24(sp)
a0802e1c:	afb00014 	sw	s0,20(sp)
a0802e20:	03a0f021 	move	s8,sp
a0802e24:	afc40020 	sw	a0,32(s8)
a0802e28:	3c02a080 	lui	v0,0xa080
a0802e2c:	8c4270cc 	lw	v0,28876(v0)
a0802e30:	ac400150 	sw	zero,336(v0)
a0802e34:	3c02a080 	lui	v0,0xa080
a0802e38:	8c5070cc 	lw	s0,28876(v0)
a0802e3c:	0c20112e 	jal	a08044b8 <get_timer>
a0802e40:	00000000 	nop
a0802e44:	ae020160 	sw	v0,352(s0)
a0802e48:	3c02a080 	lui	v0,0xa080
a0802e4c:	8c4370cc 	lw	v1,28876(v0)
a0802e50:	8fc20020 	lw	v0,32(s8)
a0802e54:	ac620164 	sw	v0,356(v1)
a0802e58:	3c02a080 	lui	v0,0xa080
a0802e5c:	8c4370cc 	lw	v1,28876(v0)
a0802e60:	3c02a080 	lui	v0,0xa080
a0802e64:	244470c0 	addiu	a0,v0,28864
a0802e68:	00602821 	move	a1,v1
a0802e6c:	0c200ede 	jal	a0803b78 <queue_push>
a0802e70:	00000000 	nop
a0802e74:	0c2000f9 	jal	a08003e4 <do_scheduler>
a0802e78:	00000000 	nop
a0802e7c:	03c0e821 	move	sp,s8
a0802e80:	8fbf001c 	lw	ra,28(sp)
a0802e84:	8fbe0018 	lw	s8,24(sp)
a0802e88:	8fb00014 	lw	s0,20(sp)
a0802e8c:	27bd0020 	addiu	sp,sp,32
a0802e90:	03e00008 	jr	ra
a0802e94:	00000000 	nop

a0802e98 <do_other>:
a0802e98:	27bdfff8 	addiu	sp,sp,-8
a0802e9c:	afbe0004 	sw	s8,4(sp)
a0802ea0:	03a0f021 	move	s8,sp
a0802ea4:	03c0e821 	move	sp,s8
a0802ea8:	8fbe0004 	lw	s8,4(sp)
a0802eac:	27bd0008 	addiu	sp,sp,8
a0802eb0:	03e00008 	jr	ra
a0802eb4:	00000000 	nop

a0802eb8 <do_block>:
a0802eb8:	27bdffe8 	addiu	sp,sp,-24
a0802ebc:	afbf0014 	sw	ra,20(sp)
a0802ec0:	afbe0010 	sw	s8,16(sp)
a0802ec4:	03a0f021 	move	s8,sp
a0802ec8:	afc40018 	sw	a0,24(s8)
a0802ecc:	3c02a080 	lui	v0,0xa080
a0802ed0:	8c4270cc 	lw	v0,28876(v0)
a0802ed4:	ac400150 	sw	zero,336(v0)
a0802ed8:	3c02a080 	lui	v0,0xa080
a0802edc:	8c4270cc 	lw	v0,28876(v0)
a0802ee0:	8fc40018 	lw	a0,24(s8)
a0802ee4:	00402821 	move	a1,v0
a0802ee8:	0c200ede 	jal	a0803b78 <queue_push>
a0802eec:	00000000 	nop
a0802ef0:	0c2000f9 	jal	a08003e4 <do_scheduler>
a0802ef4:	00000000 	nop
a0802ef8:	03c0e821 	move	sp,s8
a0802efc:	8fbf0014 	lw	ra,20(sp)
a0802f00:	8fbe0010 	lw	s8,16(sp)
a0802f04:	27bd0018 	addiu	sp,sp,24
a0802f08:	03e00008 	jr	ra
a0802f0c:	00000000 	nop

a0802f10 <do_unblock_one>:
a0802f10:	27bdffe0 	addiu	sp,sp,-32
a0802f14:	afbf001c 	sw	ra,28(sp)
a0802f18:	afbe0018 	sw	s8,24(sp)
a0802f1c:	03a0f021 	move	s8,sp
a0802f20:	afc40020 	sw	a0,32(s8)
a0802f24:	8fc40020 	lw	a0,32(s8)
a0802f28:	0c200ecb 	jal	a0803b2c <queue_is_empty>
a0802f2c:	00000000 	nop
a0802f30:	1440000b 	bnez	v0,a0802f60 <do_unblock_one+0x50>
a0802f34:	00000000 	nop
a0802f38:	8fc40020 	lw	a0,32(s8)
a0802f3c:	0c200f77 	jal	a0803ddc <queue_dequeue>
a0802f40:	00000000 	nop
a0802f44:	afc20010 	sw	v0,16(s8)
a0802f48:	8fc30010 	lw	v1,16(s8)
a0802f4c:	24020002 	li	v0,2
a0802f50:	ac620150 	sw	v0,336(v1)
a0802f54:	8fc40010 	lw	a0,16(s8)
a0802f58:	0c200f33 	jal	a0803ccc <priority_queue_push>
a0802f5c:	00000000 	nop
a0802f60:	03c0e821 	move	sp,s8
a0802f64:	8fbf001c 	lw	ra,28(sp)
a0802f68:	8fbe0018 	lw	s8,24(sp)
a0802f6c:	27bd0020 	addiu	sp,sp,32
a0802f70:	03e00008 	jr	ra
a0802f74:	00000000 	nop

a0802f78 <do_unblock_all>:
a0802f78:	27bdffe0 	addiu	sp,sp,-32
a0802f7c:	afbf001c 	sw	ra,28(sp)
a0802f80:	afbe0018 	sw	s8,24(sp)
a0802f84:	03a0f021 	move	s8,sp
a0802f88:	afc40020 	sw	a0,32(s8)
a0802f8c:	08200bef 	j	a0802fbc <do_unblock_all+0x44>
a0802f90:	00000000 	nop
a0802f94:	8fc40020 	lw	a0,32(s8)
a0802f98:	0c200f77 	jal	a0803ddc <queue_dequeue>
a0802f9c:	00000000 	nop
a0802fa0:	afc20010 	sw	v0,16(s8)
a0802fa4:	8fc30010 	lw	v1,16(s8)
a0802fa8:	24020002 	li	v0,2
a0802fac:	ac620150 	sw	v0,336(v1)
a0802fb0:	8fc40010 	lw	a0,16(s8)
a0802fb4:	0c200f33 	jal	a0803ccc <priority_queue_push>
a0802fb8:	00000000 	nop
a0802fbc:	8fc40020 	lw	a0,32(s8)
a0802fc0:	0c200ecb 	jal	a0803b2c <queue_is_empty>
a0802fc4:	00000000 	nop
a0802fc8:	1040fff2 	beqz	v0,a0802f94 <do_unblock_all+0x1c>
a0802fcc:	00000000 	nop
a0802fd0:	03c0e821 	move	sp,s8
a0802fd4:	8fbf001c 	lw	ra,28(sp)
a0802fd8:	8fbe0018 	lw	s8,24(sp)
a0802fdc:	27bd0020 	addiu	sp,sp,32
a0802fe0:	03e00008 	jr	ra
a0802fe4:	00000000 	nop

a0802fe8 <CloseInt>:
a0802fe8:	27bdffe0 	addiu	sp,sp,-32
a0802fec:	afbf001c 	sw	ra,28(sp)
a0802ff0:	afbe0018 	sw	s8,24(sp)
a0802ff4:	03a0f021 	move	s8,sp
a0802ff8:	0c2000d5 	jal	a0800354 <GET_CP0_STATUS>
a0802ffc:	00000000 	nop
a0803000:	afc20010 	sw	v0,16(s8)
a0803004:	8fc30010 	lw	v1,16(s8)
a0803008:	2402fffe 	li	v0,-2
a080300c:	00621024 	and	v0,v1,v0
a0803010:	afc20010 	sw	v0,16(s8)
a0803014:	8fc40010 	lw	a0,16(s8)
a0803018:	0c2000d8 	jal	a0800360 <SET_CP0_STATUS>
a080301c:	00000000 	nop
a0803020:	03c0e821 	move	sp,s8
a0803024:	8fbf001c 	lw	ra,28(sp)
a0803028:	8fbe0018 	lw	s8,24(sp)
a080302c:	27bd0020 	addiu	sp,sp,32
a0803030:	03e00008 	jr	ra
a0803034:	00000000 	nop

a0803038 <SetInt>:
a0803038:	27bdffe0 	addiu	sp,sp,-32
a080303c:	afbf001c 	sw	ra,28(sp)
a0803040:	afbe0018 	sw	s8,24(sp)
a0803044:	03a0f021 	move	s8,sp
a0803048:	0c2000d5 	jal	a0800354 <GET_CP0_STATUS>
a080304c:	00000000 	nop
a0803050:	afc20010 	sw	v0,16(s8)
a0803054:	8fc20010 	lw	v0,16(s8)
a0803058:	34420001 	ori	v0,v0,0x1
a080305c:	afc20010 	sw	v0,16(s8)
a0803060:	8fc40010 	lw	a0,16(s8)
a0803064:	0c2000d8 	jal	a0800360 <SET_CP0_STATUS>
a0803068:	00000000 	nop
a080306c:	03c0e821 	move	sp,s8
a0803070:	8fbf001c 	lw	ra,28(sp)
a0803074:	8fbe0018 	lw	s8,24(sp)
a0803078:	27bd0020 	addiu	sp,sp,32
a080307c:	03e00008 	jr	ra
a0803080:	00000000 	nop

a0803084 <do_getpid>:
a0803084:	27bdfff8 	addiu	sp,sp,-8
a0803088:	afbe0004 	sw	s8,4(sp)
a080308c:	03a0f021 	move	s8,sp
a0803090:	3c02a080 	lui	v0,0xa080
a0803094:	8c4270cc 	lw	v0,28876(v0)
a0803098:	8c420148 	lw	v0,328(v0)
a080309c:	03c0e821 	move	sp,s8
a08030a0:	8fbe0004 	lw	s8,4(sp)
a08030a4:	27bd0008 	addiu	sp,sp,8
a08030a8:	03e00008 	jr	ra
a08030ac:	00000000 	nop

a08030b0 <task_status_print>:
a08030b0:	27bdffe8 	addiu	sp,sp,-24
a08030b4:	afbf0014 	sw	ra,20(sp)
a08030b8:	afbe0010 	sw	s8,16(sp)
a08030bc:	03a0f021 	move	s8,sp
a08030c0:	afc40018 	sw	a0,24(s8)
a08030c4:	8fc20018 	lw	v0,24(s8)
a08030c8:	2c420005 	sltiu	v0,v0,5
a08030cc:	10400025 	beqz	v0,a0803164 <task_status_print+0xb4>
a08030d0:	00000000 	nop
a08030d4:	8fc20018 	lw	v0,24(s8)
a08030d8:	00021880 	sll	v1,v0,0x2
a08030dc:	3c02a080 	lui	v0,0xa080
a08030e0:	24426c90 	addiu	v0,v0,27792
a08030e4:	00621021 	addu	v0,v1,v0
a08030e8:	8c420000 	lw	v0,0(v0)
a08030ec:	00400008 	jr	v0
a08030f0:	00000000 	nop
a08030f4:	3c02a080 	lui	v0,0xa080
a08030f8:	24446c40 	addiu	a0,v0,27712
a08030fc:	0c20175d 	jal	a0805d74 <my_printf>
a0803100:	00000000 	nop
a0803104:	08200c59 	j	a0803164 <task_status_print+0xb4>
a0803108:	00000000 	nop
a080310c:	3c02a080 	lui	v0,0xa080
a0803110:	24446c50 	addiu	a0,v0,27728
a0803114:	0c20175d 	jal	a0805d74 <my_printf>
a0803118:	00000000 	nop
a080311c:	08200c59 	j	a0803164 <task_status_print+0xb4>
a0803120:	00000000 	nop
a0803124:	3c02a080 	lui	v0,0xa080
a0803128:	24446c60 	addiu	a0,v0,27744
a080312c:	0c20175d 	jal	a0805d74 <my_printf>
a0803130:	00000000 	nop
a0803134:	08200c59 	j	a0803164 <task_status_print+0xb4>
a0803138:	00000000 	nop
a080313c:	3c02a080 	lui	v0,0xa080
a0803140:	24446c70 	addiu	a0,v0,27760
a0803144:	0c20175d 	jal	a0805d74 <my_printf>
a0803148:	00000000 	nop
a080314c:	08200c59 	j	a0803164 <task_status_print+0xb4>
a0803150:	00000000 	nop
a0803154:	3c02a080 	lui	v0,0xa080
a0803158:	24446c80 	addiu	a0,v0,27776
a080315c:	0c20175d 	jal	a0805d74 <my_printf>
a0803160:	00000000 	nop
a0803164:	03c0e821 	move	sp,s8
a0803168:	8fbf0014 	lw	ra,20(sp)
a080316c:	8fbe0010 	lw	s8,16(sp)
a0803170:	27bd0018 	addiu	sp,sp,24
a0803174:	03e00008 	jr	ra
a0803178:	00000000 	nop

a080317c <do_ps>:
a080317c:	27bdffe0 	addiu	sp,sp,-32
a0803180:	afbf001c 	sw	ra,28(sp)
a0803184:	afbe0018 	sw	s8,24(sp)
a0803188:	03a0f021 	move	s8,sp
a080318c:	afc00010 	sw	zero,16(s8)
a0803190:	08200cac 	j	a08032b0 <do_ps+0x134>
a0803194:	00000000 	nop
a0803198:	8fc20010 	lw	v0,16(s8)
a080319c:	3c03a081 	lui	v1,0xa081
a08031a0:	00022080 	sll	a0,v0,0x2
a08031a4:	2462c4e4 	addiu	v0,v1,-15132
a08031a8:	00821021 	addu	v0,a0,v0
a08031ac:	8c420000 	lw	v0,0(v0)
a08031b0:	1040003c 	beqz	v0,a08032a4 <do_ps+0x128>
a08031b4:	00000000 	nop
a08031b8:	3c02a080 	lui	v0,0xa080
a08031bc:	24446ca4 	addiu	a0,v0,27812
a08031c0:	8fc50010 	lw	a1,16(s8)
a08031c4:	0c20175d 	jal	a0805d74 <my_printf>
a08031c8:	00000000 	nop
a08031cc:	8fc40010 	lw	a0,16(s8)
a08031d0:	3c05a082 	lui	a1,0xa082
a08031d4:	00801021 	move	v0,a0
a08031d8:	000218c0 	sll	v1,v0,0x3
a08031dc:	00031080 	sll	v0,v1,0x2
a08031e0:	00431023 	subu	v0,v0,v1
a08031e4:	00441023 	subu	v0,v0,a0
a08031e8:	00021900 	sll	v1,v0,0x4
a08031ec:	24a289e0 	addiu	v0,a1,-30240
a08031f0:	00621021 	addu	v0,v1,v0
a08031f4:	8c430148 	lw	v1,328(v0)
a08031f8:	3c02a080 	lui	v0,0xa080
a08031fc:	24446cac 	addiu	a0,v0,27820
a0803200:	00602821 	move	a1,v1
a0803204:	0c20175d 	jal	a0805d74 <my_printf>
a0803208:	00000000 	nop
a080320c:	3c02a080 	lui	v0,0xa080
a0803210:	24446cbc 	addiu	a0,v0,27836
a0803214:	0c20175d 	jal	a0805d74 <my_printf>
a0803218:	00000000 	nop
a080321c:	8fc40010 	lw	a0,16(s8)
a0803220:	3c05a082 	lui	a1,0xa082
a0803224:	00801021 	move	v0,a0
a0803228:	000218c0 	sll	v1,v0,0x3
a080322c:	00031080 	sll	v0,v1,0x2
a0803230:	00431023 	subu	v0,v0,v1
a0803234:	00441023 	subu	v0,v0,a0
a0803238:	00021900 	sll	v1,v0,0x4
a080323c:	24a289e0 	addiu	v0,a1,-30240
a0803240:	00621021 	addu	v0,v1,v0
a0803244:	8c420150 	lw	v0,336(v0)
a0803248:	00402021 	move	a0,v0
a080324c:	0c200c2c 	jal	a08030b0 <task_status_print>
a0803250:	00000000 	nop
a0803254:	8fc40010 	lw	a0,16(s8)
a0803258:	3c02a082 	lui	v0,0xa082
a080325c:	244589e0 	addiu	a1,v0,-30240
a0803260:	00801021 	move	v0,a0
a0803264:	000218c0 	sll	v1,v0,0x3
a0803268:	00031080 	sll	v0,v1,0x2
a080326c:	00431023 	subu	v0,v0,v1
a0803270:	00441023 	subu	v0,v0,a0
a0803274:	00021100 	sll	v0,v0,0x4
a0803278:	00a21021 	addu	v0,a1,v0
a080327c:	8c43015c 	lw	v1,348(v0)
a0803280:	3c02a080 	lui	v0,0xa080
a0803284:	24446cc8 	addiu	a0,v0,27848
a0803288:	00602821 	move	a1,v1
a080328c:	0c20175d 	jal	a0805d74 <my_printf>
a0803290:	00000000 	nop
a0803294:	3c02a080 	lui	v0,0xa080
a0803298:	24446cdc 	addiu	a0,v0,27868
a080329c:	0c20175d 	jal	a0805d74 <my_printf>
a08032a0:	00000000 	nop
a08032a4:	8fc20010 	lw	v0,16(s8)
a08032a8:	24420001 	addiu	v0,v0,1
a08032ac:	afc20010 	sw	v0,16(s8)
a08032b0:	8fc20010 	lw	v0,16(s8)
a08032b4:	28420010 	slti	v0,v0,16
a08032b8:	1440ffb7 	bnez	v0,a0803198 <do_ps+0x1c>
a08032bc:	00000000 	nop
a08032c0:	03c0e821 	move	sp,s8
a08032c4:	8fbf001c 	lw	ra,28(sp)
a08032c8:	8fbe0018 	lw	s8,24(sp)
a08032cc:	27bd0020 	addiu	sp,sp,32
a08032d0:	03e00008 	jr	ra
a08032d4:	00000000 	nop

a08032d8 <do_clear>:
a08032d8:	27bdffe8 	addiu	sp,sp,-24
a08032dc:	afbf0014 	sw	ra,20(sp)
a08032e0:	afbe0010 	sw	s8,16(sp)
a08032e4:	03a0f021 	move	s8,sp
a08032e8:	24040010 	li	a0,16
a08032ec:	2405001e 	li	a1,30
a08032f0:	0c20040f 	jal	a080103c <screen_clear>
a08032f4:	00000000 	nop
a08032f8:	00002021 	move	a0,zero
a08032fc:	24050010 	li	a1,16
a0803300:	0c20044c 	jal	a0801130 <screen_move_cursor>
a0803304:	00000000 	nop
a0803308:	03c0e821 	move	sp,s8
a080330c:	8fbf0014 	lw	ra,20(sp)
a0803310:	8fbe0010 	lw	s8,16(sp)
a0803314:	27bd0018 	addiu	sp,sp,24
a0803318:	03e00008 	jr	ra
a080331c:	00000000 	nop

a0803320 <do_clear_all>:
a0803320:	27bdffe8 	addiu	sp,sp,-24
a0803324:	afbf0014 	sw	ra,20(sp)
a0803328:	afbe0010 	sw	s8,16(sp)
a080332c:	03a0f021 	move	s8,sp
a0803330:	00002021 	move	a0,zero
a0803334:	2405001e 	li	a1,30
a0803338:	0c20040f 	jal	a080103c <screen_clear>
a080333c:	00000000 	nop
a0803340:	00002021 	move	a0,zero
a0803344:	2405000f 	li	a1,15
a0803348:	0c20044c 	jal	a0801130 <screen_move_cursor>
a080334c:	00000000 	nop
a0803350:	3c02a080 	lui	v0,0xa080
a0803354:	24446ce0 	addiu	a0,v0,27872
a0803358:	0c20175d 	jal	a0805d74 <my_printf>
a080335c:	00000000 	nop
a0803360:	03c0e821 	move	sp,s8
a0803364:	8fbf0014 	lw	ra,20(sp)
a0803368:	8fbe0010 	lw	s8,16(sp)
a080336c:	27bd0018 	addiu	sp,sp,24
a0803370:	03e00008 	jr	ra
a0803374:	00000000 	nop

a0803378 <recycle>:
a0803378:	27bdffe0 	addiu	sp,sp,-32
a080337c:	afbf001c 	sw	ra,28(sp)
a0803380:	afbe0018 	sw	s8,24(sp)
a0803384:	03a0f021 	move	s8,sp
a0803388:	afc40020 	sw	a0,32(s8)
a080338c:	afc00010 	sw	zero,16(s8)
a0803390:	08200cf7 	j	a08033dc <recycle+0x64>
a0803394:	00000000 	nop
a0803398:	8fc40010 	lw	a0,16(s8)
a080339c:	3c05a082 	lui	a1,0xa082
a08033a0:	00801021 	move	v0,a0
a08033a4:	000218c0 	sll	v1,v0,0x3
a08033a8:	00031080 	sll	v0,v1,0x2
a08033ac:	00431023 	subu	v0,v0,v1
a08033b0:	00441023 	subu	v0,v0,a0
a08033b4:	00021900 	sll	v1,v0,0x4
a08033b8:	24a289e0 	addiu	v0,a1,-30240
a08033bc:	00621021 	addu	v0,v1,v0
a08033c0:	8c430148 	lw	v1,328(v0)
a08033c4:	8fc20020 	lw	v0,32(s8)
a08033c8:	10620008 	beq	v1,v0,a08033ec <recycle+0x74>
a08033cc:	00000000 	nop
a08033d0:	8fc20010 	lw	v0,16(s8)
a08033d4:	24420001 	addiu	v0,v0,1
a08033d8:	afc20010 	sw	v0,16(s8)
a08033dc:	8fc20010 	lw	v0,16(s8)
a08033e0:	28420010 	slti	v0,v0,16
a08033e4:	1440ffec 	bnez	v0,a0803398 <recycle+0x20>
a08033e8:	00000000 	nop
a08033ec:	8fc30010 	lw	v1,16(s8)
a08033f0:	24020010 	li	v0,16
a08033f4:	14620007 	bne	v1,v0,a0803414 <recycle+0x9c>
a08033f8:	00000000 	nop
a08033fc:	3c02a080 	lui	v0,0xa080
a0803400:	24446d34 	addiu	a0,v0,27956
a0803404:	0c20175d 	jal	a0805d74 <my_printf>
a0803408:	00000000 	nop
a080340c:	08200d4d 	j	a0803534 <recycle+0x1bc>
a0803410:	00000000 	nop
a0803414:	8fc40010 	lw	a0,16(s8)
a0803418:	00801021 	move	v0,a0
a080341c:	000218c0 	sll	v1,v0,0x3
a0803420:	00031080 	sll	v0,v1,0x2
a0803424:	00431023 	subu	v0,v0,v1
a0803428:	00441023 	subu	v0,v0,a0
a080342c:	00021100 	sll	v0,v0,0x4
a0803430:	00401821 	move	v1,v0
a0803434:	3c02a082 	lui	v0,0xa082
a0803438:	244289e0 	addiu	v0,v0,-30240
a080343c:	00621821 	addu	v1,v1,v0
a0803440:	3c02a081 	lui	v0,0xa081
a0803444:	2442c3d0 	addiu	v0,v0,-15408
a0803448:	8c420004 	lw	v0,4(v0)
a080344c:	14620005 	bne	v1,v0,a0803464 <recycle+0xec>
a0803450:	00000000 	nop
a0803454:	3c02a081 	lui	v0,0xa081
a0803458:	2444c3d0 	addiu	a0,v0,-15408
a080345c:	0c2007a4 	jal	a0801e90 <do_mutex_lock_release>
a0803460:	00000000 	nop
a0803464:	8fc40010 	lw	a0,16(s8)
a0803468:	00801021 	move	v0,a0
a080346c:	000218c0 	sll	v1,v0,0x3
a0803470:	00031080 	sll	v0,v1,0x2
a0803474:	00431023 	subu	v0,v0,v1
a0803478:	00441023 	subu	v0,v0,a0
a080347c:	00021100 	sll	v0,v0,0x4
a0803480:	00401821 	move	v1,v0
a0803484:	3c02a082 	lui	v0,0xa082
a0803488:	244289e0 	addiu	v0,v0,-30240
a080348c:	00621821 	addu	v1,v1,v0
a0803490:	3c02a081 	lui	v0,0xa081
a0803494:	2442c524 	addiu	v0,v0,-15068
a0803498:	8c420004 	lw	v0,4(v0)
a080349c:	14620005 	bne	v1,v0,a08034b4 <recycle+0x13c>
a08034a0:	00000000 	nop
a08034a4:	3c02a081 	lui	v0,0xa081
a08034a8:	2444c524 	addiu	a0,v0,-15068
a08034ac:	0c2007a4 	jal	a0801e90 <do_mutex_lock_release>
a08034b0:	00000000 	nop
a08034b4:	8fc40010 	lw	a0,16(s8)
a08034b8:	00801021 	move	v0,a0
a08034bc:	000218c0 	sll	v1,v0,0x3
a08034c0:	00031080 	sll	v0,v1,0x2
a08034c4:	00431023 	subu	v0,v0,v1
a08034c8:	00441023 	subu	v0,v0,a0
a08034cc:	00021100 	sll	v0,v0,0x4
a08034d0:	24430168 	addiu	v1,v0,360
a08034d4:	3c02a082 	lui	v0,0xa082
a08034d8:	244289e0 	addiu	v0,v0,-30240
a08034dc:	00621021 	addu	v0,v1,v0
a08034e0:	00402021 	move	a0,v0
a08034e4:	0c200bde 	jal	a0802f78 <do_unblock_all>
a08034e8:	00000000 	nop
a08034ec:	8fc40010 	lw	a0,16(s8)
a08034f0:	3c05a082 	lui	a1,0xa082
a08034f4:	00801021 	move	v0,a0
a08034f8:	000218c0 	sll	v1,v0,0x3
a08034fc:	00031080 	sll	v0,v1,0x2
a0803500:	00431023 	subu	v0,v0,v1
a0803504:	00441023 	subu	v0,v0,a0
a0803508:	00021900 	sll	v1,v0,0x4
a080350c:	24a289e0 	addiu	v0,a1,-30240
a0803510:	00621821 	addu	v1,v1,v0
a0803514:	24020003 	li	v0,3
a0803518:	ac620150 	sw	v0,336(v1)
a080351c:	8fc20010 	lw	v0,16(s8)
a0803520:	3c03a081 	lui	v1,0xa081
a0803524:	00022080 	sll	a0,v0,0x2
a0803528:	2462c4e4 	addiu	v0,v1,-15132
a080352c:	00821021 	addu	v0,a0,v0
a0803530:	ac400000 	sw	zero,0(v0)
a0803534:	03c0e821 	move	sp,s8
a0803538:	8fbf001c 	lw	ra,28(sp)
a080353c:	8fbe0018 	lw	s8,24(sp)
a0803540:	27bd0020 	addiu	sp,sp,32
a0803544:	03e00008 	jr	ra
a0803548:	00000000 	nop

a080354c <do_spawn>:
a080354c:	27bdffe0 	addiu	sp,sp,-32
a0803550:	afbf001c 	sw	ra,28(sp)
a0803554:	afbe0018 	sw	s8,24(sp)
a0803558:	03a0f021 	move	s8,sp
a080355c:	afc40020 	sw	a0,32(s8)
a0803560:	afc00010 	sw	zero,16(s8)
a0803564:	08200d5e 	j	a0803578 <do_spawn+0x2c>
a0803568:	00000000 	nop
a080356c:	8fc20010 	lw	v0,16(s8)
a0803570:	24420001 	addiu	v0,v0,1
a0803574:	afc20010 	sw	v0,16(s8)
a0803578:	8fc20010 	lw	v0,16(s8)
a080357c:	3c03a081 	lui	v1,0xa081
a0803580:	00022080 	sll	a0,v0,0x2
a0803584:	2462c4e4 	addiu	v0,v1,-15132
a0803588:	00821021 	addu	v0,a0,v0
a080358c:	8c420000 	lw	v0,0(v0)
a0803590:	10400005 	beqz	v0,a08035a8 <do_spawn+0x5c>
a0803594:	00000000 	nop
a0803598:	8fc20010 	lw	v0,16(s8)
a080359c:	28420010 	slti	v0,v0,16
a08035a0:	1440fff2 	bnez	v0,a080356c <do_spawn+0x20>
a08035a4:	00000000 	nop
a08035a8:	8fc30010 	lw	v1,16(s8)
a08035ac:	24020010 	li	v0,16
a08035b0:	14620007 	bne	v1,v0,a08035d0 <do_spawn+0x84>
a08035b4:	00000000 	nop
a08035b8:	3c02a080 	lui	v0,0xa080
a08035bc:	24446d40 	addiu	a0,v0,27968
a08035c0:	0c20175d 	jal	a0805d74 <my_printf>
a08035c4:	00000000 	nop
a08035c8:	08200e4e 	j	a0803938 <do_spawn+0x3ec>
a08035cc:	00000000 	nop
a08035d0:	8fc20010 	lw	v0,16(s8)
a08035d4:	3c03a081 	lui	v1,0xa081
a08035d8:	00022080 	sll	a0,v0,0x2
a08035dc:	2462c4e4 	addiu	v0,v1,-15132
a08035e0:	00821821 	addu	v1,a0,v0
a08035e4:	24020001 	li	v0,1
a08035e8:	ac620000 	sw	v0,0(v1)
a08035ec:	8fc40010 	lw	a0,16(s8)
a08035f0:	3c02a080 	lui	v0,0xa080
a08035f4:	8c456f50 	lw	a1,28496(v0)
a08035f8:	3c06a082 	lui	a2,0xa082
a08035fc:	00801021 	move	v0,a0
a0803600:	000218c0 	sll	v1,v0,0x3
a0803604:	00031080 	sll	v0,v1,0x2
a0803608:	00431023 	subu	v0,v0,v1
a080360c:	00441023 	subu	v0,v0,a0
a0803610:	00021900 	sll	v1,v0,0x4
a0803614:	24c289e0 	addiu	v0,a2,-30240
a0803618:	00621021 	addu	v0,v1,v0
a080361c:	ac450148 	sw	a1,328(v0)
a0803620:	24a30001 	addiu	v1,a1,1
a0803624:	3c02a080 	lui	v0,0xa080
a0803628:	ac436f50 	sw	v1,28496(v0)
a080362c:	8fc40010 	lw	a0,16(s8)
a0803630:	8fc20020 	lw	v0,32(s8)
a0803634:	8c450008 	lw	a1,8(v0)
a0803638:	3c02a082 	lui	v0,0xa082
a080363c:	244689e0 	addiu	a2,v0,-30240
a0803640:	00801021 	move	v0,a0
a0803644:	000218c0 	sll	v1,v0,0x3
a0803648:	00031080 	sll	v0,v1,0x2
a080364c:	00431023 	subu	v0,v0,v1
a0803650:	00441023 	subu	v0,v0,a0
a0803654:	00021100 	sll	v0,v0,0x4
a0803658:	00c21021 	addu	v0,a2,v0
a080365c:	ac45014c 	sw	a1,332(v0)
a0803660:	8fc40010 	lw	a0,16(s8)
a0803664:	3c05a082 	lui	a1,0xa082
a0803668:	00801021 	move	v0,a0
a080366c:	000218c0 	sll	v1,v0,0x3
a0803670:	00031080 	sll	v0,v1,0x2
a0803674:	00431023 	subu	v0,v0,v1
a0803678:	00441023 	subu	v0,v0,a0
a080367c:	00021900 	sll	v1,v0,0x4
a0803680:	24a289e0 	addiu	v0,a1,-30240
a0803684:	00621821 	addu	v1,v1,v0
a0803688:	24020002 	li	v0,2
a080368c:	ac620150 	sw	v0,336(v1)
a0803690:	8fc40010 	lw	a0,16(s8)
a0803694:	3c05a082 	lui	a1,0xa082
a0803698:	00801021 	move	v0,a0
a080369c:	000218c0 	sll	v1,v0,0x3
a08036a0:	00031080 	sll	v0,v1,0x2
a08036a4:	00431023 	subu	v0,v0,v1
a08036a8:	00441023 	subu	v0,v0,a0
a08036ac:	00021900 	sll	v1,v0,0x4
a08036b0:	24a289e0 	addiu	v0,a1,-30240
a08036b4:	00621021 	addu	v0,v1,v0
a08036b8:	ac400140 	sw	zero,320(v0)
a08036bc:	8fc40010 	lw	a0,16(s8)
a08036c0:	3c02a082 	lui	v0,0xa082
a08036c4:	244589e0 	addiu	a1,v0,-30240
a08036c8:	00801021 	move	v0,a0
a08036cc:	000218c0 	sll	v1,v0,0x3
a08036d0:	00031080 	sll	v0,v1,0x2
a08036d4:	00431023 	subu	v0,v0,v1
a08036d8:	00441023 	subu	v0,v0,a0
a08036dc:	00021100 	sll	v0,v0,0x4
a08036e0:	00a21021 	addu	v0,a1,v0
a08036e4:	ac400144 	sw	zero,324(v0)
a08036e8:	8fc40010 	lw	a0,16(s8)
a08036ec:	3c02a080 	lui	v0,0xa080
a08036f0:	24450768 	addiu	a1,v0,1896
a08036f4:	3c06a082 	lui	a2,0xa082
a08036f8:	00801021 	move	v0,a0
a08036fc:	000218c0 	sll	v1,v0,0x3
a0803700:	00031080 	sll	v0,v1,0x2
a0803704:	00431023 	subu	v0,v0,v1
a0803708:	00441023 	subu	v0,v0,a0
a080370c:	00021900 	sll	v1,v0,0x4
a0803710:	24c289e0 	addiu	v0,a2,-30240
a0803714:	00621021 	addu	v0,v1,v0
a0803718:	ac45007c 	sw	a1,124(v0)
a080371c:	8fc40010 	lw	a0,16(s8)
a0803720:	8fc20020 	lw	v0,32(s8)
a0803724:	8c450004 	lw	a1,4(v0)
a0803728:	3c02a082 	lui	v0,0xa082
a080372c:	244689e0 	addiu	a2,v0,-30240
a0803730:	00801021 	move	v0,a0
a0803734:	000218c0 	sll	v1,v0,0x3
a0803738:	00031080 	sll	v0,v1,0x2
a080373c:	00431023 	subu	v0,v0,v1
a0803740:	00441023 	subu	v0,v0,a0
a0803744:	00021100 	sll	v0,v0,0x4
a0803748:	00c21021 	addu	v0,a2,v0
a080374c:	ac450118 	sw	a1,280(v0)
a0803750:	8fc40010 	lw	a0,16(s8)
a0803754:	8fc20020 	lw	v0,32(s8)
a0803758:	8c450004 	lw	a1,4(v0)
a080375c:	3c02a082 	lui	v0,0xa082
a0803760:	244689e0 	addiu	a2,v0,-30240
a0803764:	00801021 	move	v0,a0
a0803768:	000218c0 	sll	v1,v0,0x3
a080376c:	00031080 	sll	v0,v1,0x2
a0803770:	00431023 	subu	v0,v0,v1
a0803774:	00441023 	subu	v0,v0,a0
a0803778:	00021100 	sll	v0,v0,0x4
a080377c:	00c21021 	addu	v0,a2,v0
a0803780:	ac450094 	sw	a1,148(v0)
a0803784:	8fc40010 	lw	a0,16(s8)
a0803788:	8fc20020 	lw	v0,32(s8)
a080378c:	8c450004 	lw	a1,4(v0)
a0803790:	3c02a082 	lui	v0,0xa082
a0803794:	244689e0 	addiu	a2,v0,-30240
a0803798:	00801021 	move	v0,a0
a080379c:	000218c0 	sll	v1,v0,0x3
a08037a0:	00031080 	sll	v0,v1,0x2
a08037a4:	00431023 	subu	v0,v0,v1
a08037a8:	00441023 	subu	v0,v0,a0
a08037ac:	00021100 	sll	v0,v0,0x4
a08037b0:	00c21021 	addu	v0,a2,v0
a08037b4:	ac450130 	sw	a1,304(v0)
a08037b8:	8fc40010 	lw	a0,16(s8)
a08037bc:	3c05a082 	lui	a1,0xa082
a08037c0:	00801021 	move	v0,a0
a08037c4:	000218c0 	sll	v1,v0,0x3
a08037c8:	00031080 	sll	v0,v1,0x2
a08037cc:	00431023 	subu	v0,v0,v1
a08037d0:	00441023 	subu	v0,v0,a0
a08037d4:	00021900 	sll	v1,v0,0x4
a08037d8:	24a289e0 	addiu	v0,a1,-30240
a08037dc:	00621821 	addu	v1,v1,v0
a08037e0:	3c021000 	lui	v0,0x1000
a08037e4:	34428003 	ori	v0,v0,0x8003
a08037e8:	ac620080 	sw	v0,128(v1)
a08037ec:	8fc40010 	lw	a0,16(s8)
a08037f0:	3c02a082 	lui	v0,0xa082
a08037f4:	244589e0 	addiu	a1,v0,-30240
a08037f8:	00801021 	move	v0,a0
a08037fc:	000218c0 	sll	v1,v0,0x3
a0803800:	00031080 	sll	v0,v1,0x2
a0803804:	00431023 	subu	v0,v0,v1
a0803808:	00441023 	subu	v0,v0,a0
a080380c:	00021100 	sll	v0,v0,0x4
a0803810:	00a21821 	addu	v1,a1,v0
a0803814:	3c021000 	lui	v0,0x1000
a0803818:	34428003 	ori	v0,v0,0x8003
a080381c:	ac62011c 	sw	v0,284(v1)
a0803820:	8fc60010 	lw	a2,16(s8)
a0803824:	8fc40010 	lw	a0,16(s8)
a0803828:	3c05a082 	lui	a1,0xa082
a080382c:	00801021 	move	v0,a0
a0803830:	000218c0 	sll	v1,v0,0x3
a0803834:	00031080 	sll	v0,v1,0x2
a0803838:	00431023 	subu	v0,v0,v1
a080383c:	00441023 	subu	v0,v0,a0
a0803840:	00021900 	sll	v1,v0,0x4
a0803844:	24a289e0 	addiu	v0,a1,-30240
a0803848:	00621021 	addu	v0,v1,v0
a080384c:	8c440138 	lw	a0,312(v0)
a0803850:	3c05a082 	lui	a1,0xa082
a0803854:	00c01021 	move	v0,a2
a0803858:	000218c0 	sll	v1,v0,0x3
a080385c:	00031080 	sll	v0,v1,0x2
a0803860:	00431023 	subu	v0,v0,v1
a0803864:	00461023 	subu	v0,v0,a2
a0803868:	00021900 	sll	v1,v0,0x4
a080386c:	24a289e0 	addiu	v0,a1,-30240
a0803870:	00621021 	addu	v0,v1,v0
a0803874:	ac440074 	sw	a0,116(v0)
a0803878:	8fc60010 	lw	a2,16(s8)
a080387c:	8fc40010 	lw	a0,16(s8)
a0803880:	3c02a082 	lui	v0,0xa082
a0803884:	244589e0 	addiu	a1,v0,-30240
a0803888:	00801021 	move	v0,a0
a080388c:	000218c0 	sll	v1,v0,0x3
a0803890:	00031080 	sll	v0,v1,0x2
a0803894:	00431023 	subu	v0,v0,v1
a0803898:	00441023 	subu	v0,v0,a0
a080389c:	00021100 	sll	v0,v0,0x4
a08038a0:	00a21021 	addu	v0,a1,v0
a08038a4:	8c44013c 	lw	a0,316(v0)
a08038a8:	3c02a082 	lui	v0,0xa082
a08038ac:	244589e0 	addiu	a1,v0,-30240
a08038b0:	00c01021 	move	v0,a2
a08038b4:	000218c0 	sll	v1,v0,0x3
a08038b8:	00031080 	sll	v0,v1,0x2
a08038bc:	00431023 	subu	v0,v0,v1
a08038c0:	00461023 	subu	v0,v0,a2
a08038c4:	00021100 	sll	v0,v0,0x4
a08038c8:	00a21021 	addu	v0,a1,v0
a08038cc:	ac440110 	sw	a0,272(v0)
a08038d0:	8fc40010 	lw	a0,16(s8)
a08038d4:	3c02a082 	lui	v0,0xa082
a08038d8:	244589e0 	addiu	a1,v0,-30240
a08038dc:	00801021 	move	v0,a0
a08038e0:	000218c0 	sll	v1,v0,0x3
a08038e4:	00031080 	sll	v0,v1,0x2
a08038e8:	00431023 	subu	v0,v0,v1
a08038ec:	00441023 	subu	v0,v0,a0
a08038f0:	00021100 	sll	v0,v0,0x4
a08038f4:	00a21821 	addu	v1,a1,v0
a08038f8:	24020001 	li	v0,1
a08038fc:	ac62015c 	sw	v0,348(v1)
a0803900:	8fc40010 	lw	a0,16(s8)
a0803904:	00801021 	move	v0,a0
a0803908:	000218c0 	sll	v1,v0,0x3
a080390c:	00031080 	sll	v0,v1,0x2
a0803910:	00431023 	subu	v0,v0,v1
a0803914:	00441023 	subu	v0,v0,a0
a0803918:	00021100 	sll	v0,v0,0x4
a080391c:	00401821 	move	v1,v0
a0803920:	3c02a082 	lui	v0,0xa082
a0803924:	244289e0 	addiu	v0,v0,-30240
a0803928:	00621021 	addu	v0,v1,v0
a080392c:	00402021 	move	a0,v0
a0803930:	0c200f33 	jal	a0803ccc <priority_queue_push>
a0803934:	00000000 	nop
a0803938:	03c0e821 	move	sp,s8
a080393c:	8fbf001c 	lw	ra,28(sp)
a0803940:	8fbe0018 	lw	s8,24(sp)
a0803944:	27bd0020 	addiu	sp,sp,32
a0803948:	03e00008 	jr	ra
a080394c:	00000000 	nop

a0803950 <do_kill>:
a0803950:	27bdffe8 	addiu	sp,sp,-24
a0803954:	afbf0014 	sw	ra,20(sp)
a0803958:	afbe0010 	sw	s8,16(sp)
a080395c:	03a0f021 	move	s8,sp
a0803960:	afc40018 	sw	a0,24(s8)
a0803964:	8fc40018 	lw	a0,24(s8)
a0803968:	0c200cde 	jal	a0803378 <recycle>
a080396c:	00000000 	nop
a0803970:	03c0e821 	move	sp,s8
a0803974:	8fbf0014 	lw	ra,20(sp)
a0803978:	8fbe0010 	lw	s8,16(sp)
a080397c:	27bd0018 	addiu	sp,sp,24
a0803980:	03e00008 	jr	ra
a0803984:	00000000 	nop

a0803988 <do_exit>:
a0803988:	27bdffe8 	addiu	sp,sp,-24
a080398c:	afbf0014 	sw	ra,20(sp)
a0803990:	afbe0010 	sw	s8,16(sp)
a0803994:	03a0f021 	move	s8,sp
a0803998:	3c02a080 	lui	v0,0xa080
a080399c:	8c4370cc 	lw	v1,28876(v0)
a08039a0:	24020003 	li	v0,3
a08039a4:	ac620150 	sw	v0,336(v1)
a08039a8:	3c02a080 	lui	v0,0xa080
a08039ac:	8c4270cc 	lw	v0,28876(v0)
a08039b0:	8c420148 	lw	v0,328(v0)
a08039b4:	00402021 	move	a0,v0
a08039b8:	0c200cde 	jal	a0803378 <recycle>
a08039bc:	00000000 	nop
a08039c0:	0c2000f9 	jal	a08003e4 <do_scheduler>
a08039c4:	00000000 	nop
a08039c8:	03c0e821 	move	sp,s8
a08039cc:	8fbf0014 	lw	ra,20(sp)
a08039d0:	8fbe0010 	lw	s8,16(sp)
a08039d4:	27bd0018 	addiu	sp,sp,24
a08039d8:	03e00008 	jr	ra
a08039dc:	00000000 	nop

a08039e0 <do_wait>:
a08039e0:	27bdffe0 	addiu	sp,sp,-32
a08039e4:	afbf001c 	sw	ra,28(sp)
a08039e8:	afbe0018 	sw	s8,24(sp)
a08039ec:	03a0f021 	move	s8,sp
a08039f0:	afc40020 	sw	a0,32(s8)
a08039f4:	afc00010 	sw	zero,16(s8)
a08039f8:	08200e91 	j	a0803a44 <do_wait+0x64>
a08039fc:	00000000 	nop
a0803a00:	8fc40010 	lw	a0,16(s8)
a0803a04:	3c05a082 	lui	a1,0xa082
a0803a08:	00801021 	move	v0,a0
a0803a0c:	000218c0 	sll	v1,v0,0x3
a0803a10:	00031080 	sll	v0,v1,0x2
a0803a14:	00431023 	subu	v0,v0,v1
a0803a18:	00441023 	subu	v0,v0,a0
a0803a1c:	00021900 	sll	v1,v0,0x4
a0803a20:	24a289e0 	addiu	v0,a1,-30240
a0803a24:	00621021 	addu	v0,v1,v0
a0803a28:	8c430148 	lw	v1,328(v0)
a0803a2c:	8fc20020 	lw	v0,32(s8)
a0803a30:	10620008 	beq	v1,v0,a0803a54 <do_wait+0x74>
a0803a34:	00000000 	nop
a0803a38:	8fc20010 	lw	v0,16(s8)
a0803a3c:	24420001 	addiu	v0,v0,1
a0803a40:	afc20010 	sw	v0,16(s8)
a0803a44:	8fc20010 	lw	v0,16(s8)
a0803a48:	28420010 	slti	v0,v0,16
a0803a4c:	1440ffec 	bnez	v0,a0803a00 <do_wait+0x20>
a0803a50:	00000000 	nop
a0803a54:	8fc30010 	lw	v1,16(s8)
a0803a58:	24020010 	li	v0,16
a0803a5c:	14620007 	bne	v1,v0,a0803a7c <do_wait+0x9c>
a0803a60:	00000000 	nop
a0803a64:	3c02a080 	lui	v0,0xa080
a0803a68:	24446d64 	addiu	a0,v0,28004
a0803a6c:	0c20175d 	jal	a0805d74 <my_printf>
a0803a70:	00000000 	nop
a0803a74:	08200eb6 	j	a0803ad8 <do_wait+0xf8>
a0803a78:	00000000 	nop
a0803a7c:	3c02a080 	lui	v0,0xa080
a0803a80:	8c4370cc 	lw	v1,28876(v0)
a0803a84:	24020004 	li	v0,4
a0803a88:	ac620150 	sw	v0,336(v1)
a0803a8c:	8fc40010 	lw	a0,16(s8)
a0803a90:	00801021 	move	v0,a0
a0803a94:	000218c0 	sll	v1,v0,0x3
a0803a98:	00031080 	sll	v0,v1,0x2
a0803a9c:	00431023 	subu	v0,v0,v1
a0803aa0:	00441023 	subu	v0,v0,a0
a0803aa4:	00021100 	sll	v0,v0,0x4
a0803aa8:	24430168 	addiu	v1,v0,360
a0803aac:	3c02a082 	lui	v0,0xa082
a0803ab0:	244289e0 	addiu	v0,v0,-30240
a0803ab4:	00621821 	addu	v1,v1,v0
a0803ab8:	3c02a080 	lui	v0,0xa080
a0803abc:	8c4270cc 	lw	v0,28876(v0)
a0803ac0:	00602021 	move	a0,v1
a0803ac4:	00402821 	move	a1,v0
a0803ac8:	0c200ede 	jal	a0803b78 <queue_push>
a0803acc:	00000000 	nop
a0803ad0:	0c2000f9 	jal	a08003e4 <do_scheduler>
a0803ad4:	00000000 	nop
a0803ad8:	03c0e821 	move	sp,s8
a0803adc:	8fbf001c 	lw	ra,28(sp)
a0803ae0:	8fbe0018 	lw	s8,24(sp)
a0803ae4:	27bd0020 	addiu	sp,sp,32
a0803ae8:	03e00008 	jr	ra
a0803aec:	00000000 	nop

a0803af0 <queue_init>:
a0803af0:	27bdfff8 	addiu	sp,sp,-8
a0803af4:	afbe0004 	sw	s8,4(sp)
a0803af8:	03a0f021 	move	s8,sp
a0803afc:	afc40008 	sw	a0,8(s8)
a0803b00:	8fc20008 	lw	v0,8(s8)
a0803b04:	ac400004 	sw	zero,4(v0)
a0803b08:	8fc20008 	lw	v0,8(s8)
a0803b0c:	8c430004 	lw	v1,4(v0)
a0803b10:	8fc20008 	lw	v0,8(s8)
a0803b14:	ac430000 	sw	v1,0(v0)
a0803b18:	03c0e821 	move	sp,s8
a0803b1c:	8fbe0004 	lw	s8,4(sp)
a0803b20:	27bd0008 	addiu	sp,sp,8
a0803b24:	03e00008 	jr	ra
a0803b28:	00000000 	nop

a0803b2c <queue_is_empty>:
a0803b2c:	27bdfff0 	addiu	sp,sp,-16
a0803b30:	afbe000c 	sw	s8,12(sp)
a0803b34:	03a0f021 	move	s8,sp
a0803b38:	afc40010 	sw	a0,16(s8)
a0803b3c:	8fc20010 	lw	v0,16(s8)
a0803b40:	8c420000 	lw	v0,0(v0)
a0803b44:	14400005 	bnez	v0,a0803b5c <queue_is_empty+0x30>
a0803b48:	00000000 	nop
a0803b4c:	24020001 	li	v0,1
a0803b50:	afc20000 	sw	v0,0(s8)
a0803b54:	08200ed8 	j	a0803b60 <queue_is_empty+0x34>
a0803b58:	00000000 	nop
a0803b5c:	afc00000 	sw	zero,0(s8)
a0803b60:	8fc20000 	lw	v0,0(s8)
a0803b64:	03c0e821 	move	sp,s8
a0803b68:	8fbe000c 	lw	s8,12(sp)
a0803b6c:	27bd0010 	addiu	sp,sp,16
a0803b70:	03e00008 	jr	ra
a0803b74:	00000000 	nop

a0803b78 <queue_push>:
a0803b78:	27bdfff0 	addiu	sp,sp,-16
a0803b7c:	afbe000c 	sw	s8,12(sp)
a0803b80:	03a0f021 	move	s8,sp
a0803b84:	afc40010 	sw	a0,16(s8)
a0803b88:	afc50014 	sw	a1,20(s8)
a0803b8c:	8fc20014 	lw	v0,20(s8)
a0803b90:	afc20000 	sw	v0,0(s8)
a0803b94:	8fc20010 	lw	v0,16(s8)
a0803b98:	8c420000 	lw	v0,0(v0)
a0803b9c:	1440000d 	bnez	v0,a0803bd4 <queue_push+0x5c>
a0803ba0:	00000000 	nop
a0803ba4:	8fc30010 	lw	v1,16(s8)
a0803ba8:	8fc20014 	lw	v0,20(s8)
a0803bac:	ac620000 	sw	v0,0(v1)
a0803bb0:	8fc30010 	lw	v1,16(s8)
a0803bb4:	8fc20014 	lw	v0,20(s8)
a0803bb8:	ac620004 	sw	v0,4(v1)
a0803bbc:	8fc20000 	lw	v0,0(s8)
a0803bc0:	ac400144 	sw	zero,324(v0)
a0803bc4:	8fc20000 	lw	v0,0(s8)
a0803bc8:	ac400140 	sw	zero,320(v0)
a0803bcc:	08200f03 	j	a0803c0c <queue_push+0x94>
a0803bd0:	00000000 	nop
a0803bd4:	8fc20010 	lw	v0,16(s8)
a0803bd8:	8c420004 	lw	v0,4(v0)
a0803bdc:	00401821 	move	v1,v0
a0803be0:	8fc20014 	lw	v0,20(s8)
a0803be4:	ac620144 	sw	v0,324(v1)
a0803be8:	8fc20000 	lw	v0,0(s8)
a0803bec:	ac400144 	sw	zero,324(v0)
a0803bf0:	8fc20010 	lw	v0,16(s8)
a0803bf4:	8c430004 	lw	v1,4(v0)
a0803bf8:	8fc20000 	lw	v0,0(s8)
a0803bfc:	ac430140 	sw	v1,320(v0)
a0803c00:	8fc30010 	lw	v1,16(s8)
a0803c04:	8fc20014 	lw	v0,20(s8)
a0803c08:	ac620004 	sw	v0,4(v1)
a0803c0c:	03c0e821 	move	sp,s8
a0803c10:	8fbe000c 	lw	s8,12(sp)
a0803c14:	27bd0010 	addiu	sp,sp,16
a0803c18:	03e00008 	jr	ra
a0803c1c:	00000000 	nop

a0803c20 <pmem_queue_push>:
a0803c20:	27bdfff0 	addiu	sp,sp,-16
a0803c24:	afbe000c 	sw	s8,12(sp)
a0803c28:	03a0f021 	move	s8,sp
a0803c2c:	afc40010 	sw	a0,16(s8)
a0803c30:	afc50014 	sw	a1,20(s8)
a0803c34:	8fc20014 	lw	v0,20(s8)
a0803c38:	afc20000 	sw	v0,0(s8)
a0803c3c:	8fc20010 	lw	v0,16(s8)
a0803c40:	8c420000 	lw	v0,0(v0)
a0803c44:	1440000d 	bnez	v0,a0803c7c <pmem_queue_push+0x5c>
a0803c48:	00000000 	nop
a0803c4c:	8fc30010 	lw	v1,16(s8)
a0803c50:	8fc20014 	lw	v0,20(s8)
a0803c54:	ac620000 	sw	v0,0(v1)
a0803c58:	8fc30010 	lw	v1,16(s8)
a0803c5c:	8fc20014 	lw	v0,20(s8)
a0803c60:	ac620004 	sw	v0,4(v1)
a0803c64:	8fc20000 	lw	v0,0(s8)
a0803c68:	ac400008 	sw	zero,8(v0)
a0803c6c:	8fc20000 	lw	v0,0(s8)
a0803c70:	ac400004 	sw	zero,4(v0)
a0803c74:	08200f2e 	j	a0803cb8 <pmem_queue_push+0x98>
a0803c78:	00000000 	nop
a0803c7c:	8fc20010 	lw	v0,16(s8)
a0803c80:	8c420004 	lw	v0,4(v0)
a0803c84:	00401821 	move	v1,v0
a0803c88:	8fc20014 	lw	v0,20(s8)
a0803c8c:	ac620008 	sw	v0,8(v1)
a0803c90:	8fc20000 	lw	v0,0(s8)
a0803c94:	ac400008 	sw	zero,8(v0)
a0803c98:	8fc20010 	lw	v0,16(s8)
a0803c9c:	8c420004 	lw	v0,4(v0)
a0803ca0:	00401821 	move	v1,v0
a0803ca4:	8fc20000 	lw	v0,0(s8)
a0803ca8:	ac430004 	sw	v1,4(v0)
a0803cac:	8fc30010 	lw	v1,16(s8)
a0803cb0:	8fc20014 	lw	v0,20(s8)
a0803cb4:	ac620004 	sw	v0,4(v1)
a0803cb8:	03c0e821 	move	sp,s8
a0803cbc:	8fbe000c 	lw	s8,12(sp)
a0803cc0:	27bd0010 	addiu	sp,sp,16
a0803cc4:	03e00008 	jr	ra
a0803cc8:	00000000 	nop

a0803ccc <priority_queue_push>:
a0803ccc:	27bdffe0 	addiu	sp,sp,-32
a0803cd0:	afbf001c 	sw	ra,28(sp)
a0803cd4:	afbe0018 	sw	s8,24(sp)
a0803cd8:	03a0f021 	move	s8,sp
a0803cdc:	afc40020 	sw	a0,32(s8)
a0803ce0:	8fc20020 	lw	v0,32(s8)
a0803ce4:	afc20014 	sw	v0,20(s8)
a0803ce8:	8fc20014 	lw	v0,20(s8)
a0803cec:	8c42015c 	lw	v0,348(v0)
a0803cf0:	2442ffff 	addiu	v0,v0,-1
a0803cf4:	afc20010 	sw	v0,16(s8)
a0803cf8:	8fc20010 	lw	v0,16(s8)
a0803cfc:	000218c0 	sll	v1,v0,0x3
a0803d00:	3c02a081 	lui	v0,0xa081
a0803d04:	2442c538 	addiu	v0,v0,-15048
a0803d08:	00621021 	addu	v0,v1,v0
a0803d0c:	00402021 	move	a0,v0
a0803d10:	8fc50020 	lw	a1,32(s8)
a0803d14:	0c200ede 	jal	a0803b78 <queue_push>
a0803d18:	00000000 	nop
a0803d1c:	03c0e821 	move	sp,s8
a0803d20:	8fbf001c 	lw	ra,28(sp)
a0803d24:	8fbe0018 	lw	s8,24(sp)
a0803d28:	27bd0020 	addiu	sp,sp,32
a0803d2c:	03e00008 	jr	ra
a0803d30:	00000000 	nop

a0803d34 <is_in_queue>:
a0803d34:	27bdffd8 	addiu	sp,sp,-40
a0803d38:	afbf0024 	sw	ra,36(sp)
a0803d3c:	afbe0020 	sw	s8,32(sp)
a0803d40:	03a0f021 	move	s8,sp
a0803d44:	afc40028 	sw	a0,40(s8)
a0803d48:	afc5002c 	sw	a1,44(s8)
a0803d4c:	8fc40028 	lw	a0,40(s8)
a0803d50:	0c200ecb 	jal	a0803b2c <queue_is_empty>
a0803d54:	00000000 	nop
a0803d58:	10400004 	beqz	v0,a0803d6c <is_in_queue+0x38>
a0803d5c:	00000000 	nop
a0803d60:	afc00018 	sw	zero,24(s8)
a0803d64:	08200f70 	j	a0803dc0 <is_in_queue+0x8c>
a0803d68:	00000000 	nop
a0803d6c:	afc00014 	sw	zero,20(s8)
a0803d70:	8fc20028 	lw	v0,40(s8)
a0803d74:	8c420000 	lw	v0,0(v0)
a0803d78:	afc20010 	sw	v0,16(s8)
a0803d7c:	8fc20010 	lw	v0,16(s8)
a0803d80:	8c430144 	lw	v1,324(v0)
a0803d84:	8fc2002c 	lw	v0,44(s8)
a0803d88:	14620005 	bne	v1,v0,a0803da0 <is_in_queue+0x6c>
a0803d8c:	00000000 	nop
a0803d90:	24020001 	li	v0,1
a0803d94:	afc20014 	sw	v0,20(s8)
a0803d98:	08200f6e 	j	a0803db8 <is_in_queue+0x84>
a0803d9c:	00000000 	nop
a0803da0:	8fc20010 	lw	v0,16(s8)
a0803da4:	8c420144 	lw	v0,324(v0)
a0803da8:	afc20010 	sw	v0,16(s8)
a0803dac:	8fc20010 	lw	v0,16(s8)
a0803db0:	1440fff2 	bnez	v0,a0803d7c <is_in_queue+0x48>
a0803db4:	00000000 	nop
a0803db8:	8fc20014 	lw	v0,20(s8)
a0803dbc:	afc20018 	sw	v0,24(s8)
a0803dc0:	8fc20018 	lw	v0,24(s8)
a0803dc4:	03c0e821 	move	sp,s8
a0803dc8:	8fbf0024 	lw	ra,36(sp)
a0803dcc:	8fbe0020 	lw	s8,32(sp)
a0803dd0:	27bd0028 	addiu	sp,sp,40
a0803dd4:	03e00008 	jr	ra
a0803dd8:	00000000 	nop

a0803ddc <queue_dequeue>:
a0803ddc:	27bdfff0 	addiu	sp,sp,-16
a0803de0:	afbe000c 	sw	s8,12(sp)
a0803de4:	03a0f021 	move	s8,sp
a0803de8:	afc40010 	sw	a0,16(s8)
a0803dec:	8fc20010 	lw	v0,16(s8)
a0803df0:	8c420000 	lw	v0,0(v0)
a0803df4:	afc20000 	sw	v0,0(s8)
a0803df8:	8fc20000 	lw	v0,0(s8)
a0803dfc:	8c420144 	lw	v0,324(v0)
a0803e00:	14400009 	bnez	v0,a0803e28 <queue_dequeue+0x4c>
a0803e04:	00000000 	nop
a0803e08:	8fc20010 	lw	v0,16(s8)
a0803e0c:	ac400004 	sw	zero,4(v0)
a0803e10:	8fc20010 	lw	v0,16(s8)
a0803e14:	8c430004 	lw	v1,4(v0)
a0803e18:	8fc20010 	lw	v0,16(s8)
a0803e1c:	ac430000 	sw	v1,0(v0)
a0803e20:	08200f92 	j	a0803e48 <queue_dequeue+0x6c>
a0803e24:	00000000 	nop
a0803e28:	8fc20010 	lw	v0,16(s8)
a0803e2c:	8c420000 	lw	v0,0(v0)
a0803e30:	8c430144 	lw	v1,324(v0)
a0803e34:	8fc20010 	lw	v0,16(s8)
a0803e38:	ac430000 	sw	v1,0(v0)
a0803e3c:	8fc20010 	lw	v0,16(s8)
a0803e40:	8c420000 	lw	v0,0(v0)
a0803e44:	ac400140 	sw	zero,320(v0)
a0803e48:	8fc20000 	lw	v0,0(s8)
a0803e4c:	ac400140 	sw	zero,320(v0)
a0803e50:	8fc20000 	lw	v0,0(s8)
a0803e54:	ac400144 	sw	zero,324(v0)
a0803e58:	8fc20000 	lw	v0,0(s8)
a0803e5c:	03c0e821 	move	sp,s8
a0803e60:	8fbe000c 	lw	s8,12(sp)
a0803e64:	27bd0010 	addiu	sp,sp,16
a0803e68:	03e00008 	jr	ra
a0803e6c:	00000000 	nop

a0803e70 <pmem_queue_dequeue>:
a0803e70:	27bdfff0 	addiu	sp,sp,-16
a0803e74:	afbe000c 	sw	s8,12(sp)
a0803e78:	03a0f021 	move	s8,sp
a0803e7c:	afc40010 	sw	a0,16(s8)
a0803e80:	8fc20010 	lw	v0,16(s8)
a0803e84:	8c420000 	lw	v0,0(v0)
a0803e88:	afc20000 	sw	v0,0(s8)
a0803e8c:	8fc20000 	lw	v0,0(s8)
a0803e90:	8c420008 	lw	v0,8(v0)
a0803e94:	14400009 	bnez	v0,a0803ebc <pmem_queue_dequeue+0x4c>
a0803e98:	00000000 	nop
a0803e9c:	8fc20010 	lw	v0,16(s8)
a0803ea0:	ac400004 	sw	zero,4(v0)
a0803ea4:	8fc20010 	lw	v0,16(s8)
a0803ea8:	8c430004 	lw	v1,4(v0)
a0803eac:	8fc20010 	lw	v0,16(s8)
a0803eb0:	ac430000 	sw	v1,0(v0)
a0803eb4:	08200fb7 	j	a0803edc <pmem_queue_dequeue+0x6c>
a0803eb8:	00000000 	nop
a0803ebc:	8fc20010 	lw	v0,16(s8)
a0803ec0:	8c420000 	lw	v0,0(v0)
a0803ec4:	8c430008 	lw	v1,8(v0)
a0803ec8:	8fc20010 	lw	v0,16(s8)
a0803ecc:	ac430000 	sw	v1,0(v0)
a0803ed0:	8fc20010 	lw	v0,16(s8)
a0803ed4:	8c420000 	lw	v0,0(v0)
a0803ed8:	ac400004 	sw	zero,4(v0)
a0803edc:	8fc20000 	lw	v0,0(s8)
a0803ee0:	ac400004 	sw	zero,4(v0)
a0803ee4:	8fc20000 	lw	v0,0(s8)
a0803ee8:	ac400008 	sw	zero,8(v0)
a0803eec:	8fc20000 	lw	v0,0(s8)
a0803ef0:	03c0e821 	move	sp,s8
a0803ef4:	8fbe000c 	lw	s8,12(sp)
a0803ef8:	27bd0010 	addiu	sp,sp,16
a0803efc:	03e00008 	jr	ra
a0803f00:	00000000 	nop

a0803f04 <priority_queue_dequeue>:
a0803f04:	27bdffb8 	addiu	sp,sp,-72
a0803f08:	afbf0044 	sw	ra,68(sp)
a0803f0c:	afbe0040 	sw	s8,64(sp)
a0803f10:	afb0003c 	sw	s0,60(sp)
a0803f14:	03a0f021 	move	s8,sp
a0803f18:	afc00014 	sw	zero,20(s8)
a0803f1c:	08200fda 	j	a0803f68 <priority_queue_dequeue+0x64>
a0803f20:	00000000 	nop
a0803f24:	8fd00014 	lw	s0,20(s8)
a0803f28:	8fc20014 	lw	v0,20(s8)
a0803f2c:	000218c0 	sll	v1,v0,0x3
a0803f30:	3c02a081 	lui	v0,0xa081
a0803f34:	2442c538 	addiu	v0,v0,-15048
a0803f38:	00621021 	addu	v0,v1,v0
a0803f3c:	00402021 	move	a0,v0
a0803f40:	0c200ecb 	jal	a0803b2c <queue_is_empty>
a0803f44:	00000000 	nop
a0803f48:	2c440001 	sltiu	a0,v0,1
a0803f4c:	00101080 	sll	v0,s0,0x2
a0803f50:	27c30010 	addiu	v1,s8,16
a0803f54:	00621021 	addu	v0,v1,v0
a0803f58:	ac440008 	sw	a0,8(v0)
a0803f5c:	8fc20014 	lw	v0,20(s8)
a0803f60:	24420001 	addiu	v0,v0,1
a0803f64:	afc20014 	sw	v0,20(s8)
a0803f68:	8fc20014 	lw	v0,20(s8)
a0803f6c:	28420005 	slti	v0,v0,5
a0803f70:	1440ffec 	bnez	v0,a0803f24 <priority_queue_dequeue+0x20>
a0803f74:	00000000 	nop
a0803f78:	0c2000db 	jal	a080036c <GET_CP0_COUNT>
a0803f7c:	00000000 	nop
a0803f80:	00402021 	move	a0,v0
a0803f84:	3c0238e3 	lui	v0,0x38e3
a0803f88:	34428e39 	ori	v0,v0,0x8e39
a0803f8c:	00820018 	mult	a0,v0
a0803f90:	00001010 	mfhi	v0
a0803f94:	00021903 	sra	v1,v0,0x4
a0803f98:	000417c3 	sra	v0,a0,0x1f
a0803f9c:	00621023 	subu	v0,v1,v0
a0803fa0:	000210c0 	sll	v0,v0,0x3
a0803fa4:	000218c0 	sll	v1,v0,0x3
a0803fa8:	00431021 	addu	v0,v0,v1
a0803fac:	00821023 	subu	v0,a0,v0
a0803fb0:	afc20010 	sw	v0,16(s8)
a0803fb4:	8fc20010 	lw	v0,16(s8)
a0803fb8:	1840000f 	blez	v0,a0803ff8 <priority_queue_dequeue+0xf4>
a0803fbc:	00000000 	nop
a0803fc0:	8fc20010 	lw	v0,16(s8)
a0803fc4:	2842000b 	slti	v0,v0,11
a0803fc8:	1040000b 	beqz	v0,a0803ff8 <priority_queue_dequeue+0xf4>
a0803fcc:	00000000 	nop
a0803fd0:	8fc20018 	lw	v0,24(s8)
a0803fd4:	10400008 	beqz	v0,a0803ff8 <priority_queue_dequeue+0xf4>
a0803fd8:	00000000 	nop
a0803fdc:	3c02a081 	lui	v0,0xa081
a0803fe0:	2444c538 	addiu	a0,v0,-15048
a0803fe4:	0c200f77 	jal	a0803ddc <queue_dequeue>
a0803fe8:	00000000 	nop
a0803fec:	afc20030 	sw	v0,48(s8)
a0803ff0:	08201044 	j	a0804110 <priority_queue_dequeue+0x20c>
a0803ff4:	00000000 	nop
a0803ff8:	8fc20010 	lw	v0,16(s8)
a0803ffc:	2842000c 	slti	v0,v0,12
a0804000:	1440000f 	bnez	v0,a0804040 <priority_queue_dequeue+0x13c>
a0804004:	00000000 	nop
a0804008:	8fc20010 	lw	v0,16(s8)
a080400c:	28420017 	slti	v0,v0,23
a0804010:	1040000b 	beqz	v0,a0804040 <priority_queue_dequeue+0x13c>
a0804014:	00000000 	nop
a0804018:	8fc2001c 	lw	v0,28(s8)
a080401c:	10400008 	beqz	v0,a0804040 <priority_queue_dequeue+0x13c>
a0804020:	00000000 	nop
a0804024:	3c02a081 	lui	v0,0xa081
a0804028:	2444c540 	addiu	a0,v0,-15040
a080402c:	0c200f77 	jal	a0803ddc <queue_dequeue>
a0804030:	00000000 	nop
a0804034:	afc20030 	sw	v0,48(s8)
a0804038:	08201044 	j	a0804110 <priority_queue_dequeue+0x20c>
a080403c:	00000000 	nop
a0804040:	8fc20010 	lw	v0,16(s8)
a0804044:	28420018 	slti	v0,v0,24
a0804048:	1440000f 	bnez	v0,a0804088 <priority_queue_dequeue+0x184>
a080404c:	00000000 	nop
a0804050:	8fc20010 	lw	v0,16(s8)
a0804054:	28420025 	slti	v0,v0,37
a0804058:	1040000b 	beqz	v0,a0804088 <priority_queue_dequeue+0x184>
a080405c:	00000000 	nop
a0804060:	8fc20020 	lw	v0,32(s8)
a0804064:	10400008 	beqz	v0,a0804088 <priority_queue_dequeue+0x184>
a0804068:	00000000 	nop
a080406c:	3c02a081 	lui	v0,0xa081
a0804070:	2444c548 	addiu	a0,v0,-15032
a0804074:	0c200f77 	jal	a0803ddc <queue_dequeue>
a0804078:	00000000 	nop
a080407c:	afc20030 	sw	v0,48(s8)
a0804080:	08201044 	j	a0804110 <priority_queue_dequeue+0x20c>
a0804084:	00000000 	nop
a0804088:	8fc20010 	lw	v0,16(s8)
a080408c:	28420026 	slti	v0,v0,38
a0804090:	1440000f 	bnez	v0,a08040d0 <priority_queue_dequeue+0x1cc>
a0804094:	00000000 	nop
a0804098:	8fc20010 	lw	v0,16(s8)
a080409c:	28420035 	slti	v0,v0,53
a08040a0:	1040000b 	beqz	v0,a08040d0 <priority_queue_dequeue+0x1cc>
a08040a4:	00000000 	nop
a08040a8:	8fc20024 	lw	v0,36(s8)
a08040ac:	10400008 	beqz	v0,a08040d0 <priority_queue_dequeue+0x1cc>
a08040b0:	00000000 	nop
a08040b4:	3c02a081 	lui	v0,0xa081
a08040b8:	2444c550 	addiu	a0,v0,-15024
a08040bc:	0c200f77 	jal	a0803ddc <queue_dequeue>
a08040c0:	00000000 	nop
a08040c4:	afc20030 	sw	v0,48(s8)
a08040c8:	08201044 	j	a0804110 <priority_queue_dequeue+0x20c>
a08040cc:	00000000 	nop
a08040d0:	8fc20010 	lw	v0,16(s8)
a08040d4:	28420036 	slti	v0,v0,54
a08040d8:	1440ffa7 	bnez	v0,a0803f78 <priority_queue_dequeue+0x74>
a08040dc:	00000000 	nop
a08040e0:	8fc20010 	lw	v0,16(s8)
a08040e4:	28420048 	slti	v0,v0,72
a08040e8:	1040ffa3 	beqz	v0,a0803f78 <priority_queue_dequeue+0x74>
a08040ec:	00000000 	nop
a08040f0:	8fc20028 	lw	v0,40(s8)
a08040f4:	1040ffa0 	beqz	v0,a0803f78 <priority_queue_dequeue+0x74>
a08040f8:	00000000 	nop
a08040fc:	3c02a081 	lui	v0,0xa081
a0804100:	2444c558 	addiu	a0,v0,-15016
a0804104:	0c200f77 	jal	a0803ddc <queue_dequeue>
a0804108:	00000000 	nop
a080410c:	afc20030 	sw	v0,48(s8)
a0804110:	8fc20030 	lw	v0,48(s8)
a0804114:	03c0e821 	move	sp,s8
a0804118:	8fbf0044 	lw	ra,68(sp)
a080411c:	8fbe0040 	lw	s8,64(sp)
a0804120:	8fb0003c 	lw	s0,60(sp)
a0804124:	27bd0048 	addiu	sp,sp,72
a0804128:	03e00008 	jr	ra
a080412c:	00000000 	nop

a0804130 <queue_remove>:
a0804130:	27bdfff0 	addiu	sp,sp,-16
a0804134:	afbe000c 	sw	s8,12(sp)
a0804138:	03a0f021 	move	s8,sp
a080413c:	afc40010 	sw	a0,16(s8)
a0804140:	afc50014 	sw	a1,20(s8)
a0804144:	8fc20014 	lw	v0,20(s8)
a0804148:	afc20004 	sw	v0,4(s8)
a080414c:	8fc20004 	lw	v0,4(s8)
a0804150:	8c420144 	lw	v0,324(v0)
a0804154:	afc20000 	sw	v0,0(s8)
a0804158:	8fc20010 	lw	v0,16(s8)
a080415c:	8c430000 	lw	v1,0(v0)
a0804160:	8fc20014 	lw	v0,20(s8)
a0804164:	1462000c 	bne	v1,v0,a0804198 <queue_remove+0x68>
a0804168:	00000000 	nop
a080416c:	8fc20010 	lw	v0,16(s8)
a0804170:	8c430004 	lw	v1,4(v0)
a0804174:	8fc20014 	lw	v0,20(s8)
a0804178:	14620007 	bne	v1,v0,a0804198 <queue_remove+0x68>
a080417c:	00000000 	nop
a0804180:	8fc20010 	lw	v0,16(s8)
a0804184:	ac400000 	sw	zero,0(v0)
a0804188:	8fc20010 	lw	v0,16(s8)
a080418c:	ac400004 	sw	zero,4(v0)
a0804190:	0820108e 	j	a0804238 <queue_remove+0x108>
a0804194:	00000000 	nop
a0804198:	8fc20010 	lw	v0,16(s8)
a080419c:	8c430000 	lw	v1,0(v0)
a08041a0:	8fc20014 	lw	v0,20(s8)
a08041a4:	1462000a 	bne	v1,v0,a08041d0 <queue_remove+0xa0>
a08041a8:	00000000 	nop
a08041ac:	8fc20004 	lw	v0,4(s8)
a08041b0:	8c430144 	lw	v1,324(v0)
a08041b4:	8fc20010 	lw	v0,16(s8)
a08041b8:	ac430000 	sw	v1,0(v0)
a08041bc:	8fc20010 	lw	v0,16(s8)
a08041c0:	8c420000 	lw	v0,0(v0)
a08041c4:	ac400140 	sw	zero,320(v0)
a08041c8:	0820108e 	j	a0804238 <queue_remove+0x108>
a08041cc:	00000000 	nop
a08041d0:	8fc20010 	lw	v0,16(s8)
a08041d4:	8c430004 	lw	v1,4(v0)
a08041d8:	8fc20014 	lw	v0,20(s8)
a08041dc:	1462000a 	bne	v1,v0,a0804208 <queue_remove+0xd8>
a08041e0:	00000000 	nop
a08041e4:	8fc20004 	lw	v0,4(s8)
a08041e8:	8c430140 	lw	v1,320(v0)
a08041ec:	8fc20010 	lw	v0,16(s8)
a08041f0:	ac430004 	sw	v1,4(v0)
a08041f4:	8fc20010 	lw	v0,16(s8)
a08041f8:	8c420004 	lw	v0,4(v0)
a08041fc:	ac400144 	sw	zero,324(v0)
a0804200:	0820108e 	j	a0804238 <queue_remove+0x108>
a0804204:	00000000 	nop
a0804208:	8fc20004 	lw	v0,4(s8)
a080420c:	8c420140 	lw	v0,320(v0)
a0804210:	00401821 	move	v1,v0
a0804214:	8fc20004 	lw	v0,4(s8)
a0804218:	8c420144 	lw	v0,324(v0)
a080421c:	ac620144 	sw	v0,324(v1)
a0804220:	8fc20004 	lw	v0,4(s8)
a0804224:	8c420144 	lw	v0,324(v0)
a0804228:	00401821 	move	v1,v0
a080422c:	8fc20004 	lw	v0,4(s8)
a0804230:	8c420140 	lw	v0,320(v0)
a0804234:	ac620140 	sw	v0,320(v1)
a0804238:	8fc20004 	lw	v0,4(s8)
a080423c:	ac400140 	sw	zero,320(v0)
a0804240:	8fc20004 	lw	v0,4(s8)
a0804244:	ac400144 	sw	zero,324(v0)
a0804248:	8fc20000 	lw	v0,0(s8)
a080424c:	03c0e821 	move	sp,s8
a0804250:	8fbe000c 	lw	s8,12(sp)
a0804254:	27bd0010 	addiu	sp,sp,16
a0804258:	03e00008 	jr	ra
a080425c:	00000000 	nop

a0804260 <pmem_queue_remove>:
a0804260:	27bdfff0 	addiu	sp,sp,-16
a0804264:	afbe000c 	sw	s8,12(sp)
a0804268:	03a0f021 	move	s8,sp
a080426c:	afc40010 	sw	a0,16(s8)
a0804270:	afc50014 	sw	a1,20(s8)
a0804274:	8fc20014 	lw	v0,20(s8)
a0804278:	afc20004 	sw	v0,4(s8)
a080427c:	8fc20004 	lw	v0,4(s8)
a0804280:	8c420008 	lw	v0,8(v0)
a0804284:	afc20000 	sw	v0,0(s8)
a0804288:	8fc20010 	lw	v0,16(s8)
a080428c:	8c430000 	lw	v1,0(v0)
a0804290:	8fc20014 	lw	v0,20(s8)
a0804294:	1462000c 	bne	v1,v0,a08042c8 <pmem_queue_remove+0x68>
a0804298:	00000000 	nop
a080429c:	8fc20010 	lw	v0,16(s8)
a08042a0:	8c430004 	lw	v1,4(v0)
a08042a4:	8fc20014 	lw	v0,20(s8)
a08042a8:	14620007 	bne	v1,v0,a08042c8 <pmem_queue_remove+0x68>
a08042ac:	00000000 	nop
a08042b0:	8fc20010 	lw	v0,16(s8)
a08042b4:	ac400000 	sw	zero,0(v0)
a08042b8:	8fc20010 	lw	v0,16(s8)
a08042bc:	ac400004 	sw	zero,4(v0)
a08042c0:	082010da 	j	a0804368 <pmem_queue_remove+0x108>
a08042c4:	00000000 	nop
a08042c8:	8fc20010 	lw	v0,16(s8)
a08042cc:	8c430000 	lw	v1,0(v0)
a08042d0:	8fc20014 	lw	v0,20(s8)
a08042d4:	1462000a 	bne	v1,v0,a0804300 <pmem_queue_remove+0xa0>
a08042d8:	00000000 	nop
a08042dc:	8fc20004 	lw	v0,4(s8)
a08042e0:	8c430008 	lw	v1,8(v0)
a08042e4:	8fc20010 	lw	v0,16(s8)
a08042e8:	ac430000 	sw	v1,0(v0)
a08042ec:	8fc20010 	lw	v0,16(s8)
a08042f0:	8c420000 	lw	v0,0(v0)
a08042f4:	ac400004 	sw	zero,4(v0)
a08042f8:	082010da 	j	a0804368 <pmem_queue_remove+0x108>
a08042fc:	00000000 	nop
a0804300:	8fc20010 	lw	v0,16(s8)
a0804304:	8c430004 	lw	v1,4(v0)
a0804308:	8fc20014 	lw	v0,20(s8)
a080430c:	1462000a 	bne	v1,v0,a0804338 <pmem_queue_remove+0xd8>
a0804310:	00000000 	nop
a0804314:	8fc20004 	lw	v0,4(s8)
a0804318:	8c430004 	lw	v1,4(v0)
a080431c:	8fc20010 	lw	v0,16(s8)
a0804320:	ac430004 	sw	v1,4(v0)
a0804324:	8fc20010 	lw	v0,16(s8)
a0804328:	8c420004 	lw	v0,4(v0)
a080432c:	ac400008 	sw	zero,8(v0)
a0804330:	082010da 	j	a0804368 <pmem_queue_remove+0x108>
a0804334:	00000000 	nop
a0804338:	8fc20004 	lw	v0,4(s8)
a080433c:	8c420004 	lw	v0,4(v0)
a0804340:	00401821 	move	v1,v0
a0804344:	8fc20004 	lw	v0,4(s8)
a0804348:	8c420008 	lw	v0,8(v0)
a080434c:	ac620008 	sw	v0,8(v1)
a0804350:	8fc20004 	lw	v0,4(s8)
a0804354:	8c420008 	lw	v0,8(v0)
a0804358:	00401821 	move	v1,v0
a080435c:	8fc20004 	lw	v0,4(s8)
a0804360:	8c420004 	lw	v0,4(v0)
a0804364:	ac620004 	sw	v0,4(v1)
a0804368:	8fc20004 	lw	v0,4(s8)
a080436c:	ac400004 	sw	zero,4(v0)
a0804370:	8fc20004 	lw	v0,4(s8)
a0804374:	ac400008 	sw	zero,8(v0)
a0804378:	8fc20004 	lw	v0,4(s8)
a080437c:	03c0e821 	move	sp,s8
a0804380:	8fbe000c 	lw	s8,12(sp)
a0804384:	27bd0010 	addiu	sp,sp,16
a0804388:	03e00008 	jr	ra
a080438c:	00000000 	nop

a0804390 <my_queue_remove>:
a0804390:	27bdffe8 	addiu	sp,sp,-24
a0804394:	afbe0014 	sw	s8,20(sp)
a0804398:	03a0f021 	move	s8,sp
a080439c:	afc40018 	sw	a0,24(s8)
a08043a0:	afc5001c 	sw	a1,28(s8)
a08043a4:	afc60020 	sw	a2,32(s8)
a08043a8:	8fc2001c 	lw	v0,28(s8)
a08043ac:	afc20008 	sw	v0,8(s8)
a08043b0:	8fc20008 	lw	v0,8(s8)
a08043b4:	8c420144 	lw	v0,324(v0)
a08043b8:	afc20004 	sw	v0,4(s8)
a08043bc:	8fc20020 	lw	v0,32(s8)
a08043c0:	afc20000 	sw	v0,0(s8)
a08043c4:	8fc20018 	lw	v0,24(s8)
a08043c8:	8c430000 	lw	v1,0(v0)
a08043cc:	8fc2001c 	lw	v0,28(s8)
a08043d0:	1462000c 	bne	v1,v0,a0804404 <my_queue_remove+0x74>
a08043d4:	00000000 	nop
a08043d8:	8fc20018 	lw	v0,24(s8)
a08043dc:	8c430004 	lw	v1,4(v0)
a08043e0:	8fc2001c 	lw	v0,28(s8)
a08043e4:	14620007 	bne	v1,v0,a0804404 <my_queue_remove+0x74>
a08043e8:	00000000 	nop
a08043ec:	8fc20018 	lw	v0,24(s8)
a08043f0:	ac400000 	sw	zero,0(v0)
a08043f4:	8fc20018 	lw	v0,24(s8)
a08043f8:	ac400004 	sw	zero,4(v0)
a08043fc:	08201118 	j	a0804460 <my_queue_remove+0xd0>
a0804400:	00000000 	nop
a0804404:	8fc20018 	lw	v0,24(s8)
a0804408:	8c430000 	lw	v1,0(v0)
a080440c:	8fc2001c 	lw	v0,28(s8)
a0804410:	1462000a 	bne	v1,v0,a080443c <my_queue_remove+0xac>
a0804414:	00000000 	nop
a0804418:	8fc20008 	lw	v0,8(s8)
a080441c:	8c430144 	lw	v1,324(v0)
a0804420:	8fc20018 	lw	v0,24(s8)
a0804424:	ac430000 	sw	v1,0(v0)
a0804428:	8fc20018 	lw	v0,24(s8)
a080442c:	8c420000 	lw	v0,0(v0)
a0804430:	ac400140 	sw	zero,320(v0)
a0804434:	08201118 	j	a0804460 <my_queue_remove+0xd0>
a0804438:	00000000 	nop
a080443c:	8fc20008 	lw	v0,8(s8)
a0804440:	8c430144 	lw	v1,324(v0)
a0804444:	8fc20000 	lw	v0,0(s8)
a0804448:	ac430144 	sw	v1,324(v0)
a080444c:	8fc20008 	lw	v0,8(s8)
a0804450:	8c420144 	lw	v0,324(v0)
a0804454:	00401821 	move	v1,v0
a0804458:	8fc20000 	lw	v0,0(s8)
a080445c:	ac620140 	sw	v0,320(v1)
a0804460:	8fc20008 	lw	v0,8(s8)
a0804464:	ac400140 	sw	zero,320(v0)
a0804468:	8fc20008 	lw	v0,8(s8)
a080446c:	ac400144 	sw	zero,324(v0)
a0804470:	8fc20004 	lw	v0,4(s8)
a0804474:	03c0e821 	move	sp,s8
a0804478:	8fbe0014 	lw	s8,20(sp)
a080447c:	27bd0018 	addiu	sp,sp,24
a0804480:	03e00008 	jr	ra
a0804484:	00000000 	nop
	...

a0804490 <get_ticks>:
a0804490:	27bdfff8 	addiu	sp,sp,-8
a0804494:	afbe0004 	sw	s8,4(sp)
a0804498:	03a0f021 	move	s8,sp
a080449c:	3c02a081 	lui	v0,0xa081
a08044a0:	8c4283c0 	lw	v0,-31808(v0)
a08044a4:	03c0e821 	move	sp,s8
a08044a8:	8fbe0004 	lw	s8,4(sp)
a08044ac:	27bd0008 	addiu	sp,sp,8
a08044b0:	03e00008 	jr	ra
a08044b4:	00000000 	nop

a08044b8 <get_timer>:
a08044b8:	27bdfff8 	addiu	sp,sp,-8
a08044bc:	afbe0004 	sw	s8,4(sp)
a08044c0:	03a0f021 	move	s8,sp
a08044c4:	3c02a081 	lui	v0,0xa081
a08044c8:	8c4383c0 	lw	v1,-31808(v0)
a08044cc:	3c026b5f 	lui	v0,0x6b5f
a08044d0:	3442ca6b 	ori	v0,v0,0xca6b
a08044d4:	00620019 	multu	v1,v0
a08044d8:	00001010 	mfhi	v0
a08044dc:	00021582 	srl	v0,v0,0x16
a08044e0:	03c0e821 	move	sp,s8
a08044e4:	8fbe0004 	lw	s8,4(sp)
a08044e8:	27bd0008 	addiu	sp,sp,8
a08044ec:	03e00008 	jr	ra
a08044f0:	00000000 	nop

a08044f4 <latency>:
a08044f4:	27bdffe0 	addiu	sp,sp,-32
a08044f8:	afbf001c 	sw	ra,28(sp)
a08044fc:	afbe0018 	sw	s8,24(sp)
a0804500:	03a0f021 	move	s8,sp
a0804504:	afc40020 	sw	a0,32(s8)
a0804508:	0c20112e 	jal	a08044b8 <get_timer>
a080450c:	00000000 	nop
a0804510:	afc20010 	sw	v0,16(s8)
a0804514:	0c20112e 	jal	a08044b8 <get_timer>
a0804518:	00000000 	nop
a080451c:	00401821 	move	v1,v0
a0804520:	8fc20010 	lw	v0,16(s8)
a0804524:	00621823 	subu	v1,v1,v0
a0804528:	8fc20020 	lw	v0,32(s8)
a080452c:	0062102b 	sltu	v0,v1,v0
a0804530:	1440fff8 	bnez	v0,a0804514 <latency+0x20>
a0804534:	00000000 	nop
a0804538:	03c0e821 	move	sp,s8
a080453c:	8fbf001c 	lw	ra,28(sp)
a0804540:	8fbe0018 	lw	s8,24(sp)
a0804544:	27bd0020 	addiu	sp,sp,32
a0804548:	03e00008 	jr	ra
a080454c:	00000000 	nop

a0804550 <system_call_helper>:
a0804550:	27bdffe0 	addiu	sp,sp,-32
a0804554:	afbf001c 	sw	ra,28(sp)
a0804558:	afbe0018 	sw	s8,24(sp)
a080455c:	03a0f021 	move	s8,sp
a0804560:	afc40020 	sw	a0,32(s8)
a0804564:	afc50024 	sw	a1,36(s8)
a0804568:	afc60028 	sw	a2,40(s8)
a080456c:	afc7002c 	sw	a3,44(s8)
a0804570:	3c02a080 	lui	v0,0xa080
a0804574:	8c4370cc 	lw	v1,28876(v0)
a0804578:	3c02a080 	lui	v0,0xa080
a080457c:	8c4270cc 	lw	v0,28876(v0)
a0804580:	8c420130 	lw	v0,304(v0)
a0804584:	24420004 	addiu	v0,v0,4
a0804588:	ac620130 	sw	v0,304(v1)
a080458c:	8fc20020 	lw	v0,32(s8)
a0804590:	3c03a081 	lui	v1,0xa081
a0804594:	00022080 	sll	a0,v0,0x2
a0804598:	2462c3e4 	addiu	v0,v1,-15388
a080459c:	00821021 	addu	v0,a0,v0
a08045a0:	8c420000 	lw	v0,0(v0)
a08045a4:	8fc40024 	lw	a0,36(s8)
a08045a8:	8fc50028 	lw	a1,40(s8)
a08045ac:	8fc6002c 	lw	a2,44(s8)
a08045b0:	0040f809 	jalr	v0
a08045b4:	00000000 	nop
a08045b8:	afc20010 	sw	v0,16(s8)
a08045bc:	3c02a080 	lui	v0,0xa080
a08045c0:	8c4370cc 	lw	v1,28876(v0)
a08045c4:	8fc20010 	lw	v0,16(s8)
a08045c8:	ac6200a4 	sw	v0,164(v1)
a08045cc:	03c0e821 	move	sp,s8
a08045d0:	8fbf001c 	lw	ra,28(sp)
a08045d4:	8fbe0018 	lw	s8,24(sp)
a08045d8:	27bd0020 	addiu	sp,sp,32
a08045dc:	03e00008 	jr	ra
a08045e0:	00000000 	nop

a08045e4 <sys_sleep>:
a08045e4:	27bdffe8 	addiu	sp,sp,-24
a08045e8:	afbf0014 	sw	ra,20(sp)
a08045ec:	afbe0010 	sw	s8,16(sp)
a08045f0:	03a0f021 	move	s8,sp
a08045f4:	afc40018 	sw	a0,24(s8)
a08045f8:	8fc20018 	lw	v0,24(s8)
a08045fc:	24040002 	li	a0,2
a0804600:	00402821 	move	a1,v0
a0804604:	00003021 	move	a2,zero
a0804608:	00003821 	move	a3,zero
a080460c:	0c2002bc 	jal	a0800af0 <invoke_syscall>
a0804610:	00000000 	nop
a0804614:	03c0e821 	move	sp,s8
a0804618:	8fbf0014 	lw	ra,20(sp)
a080461c:	8fbe0010 	lw	s8,16(sp)
a0804620:	27bd0018 	addiu	sp,sp,24
a0804624:	03e00008 	jr	ra
a0804628:	00000000 	nop

a080462c <sys_getpid>:
a080462c:	27bdffe0 	addiu	sp,sp,-32
a0804630:	afbf001c 	sw	ra,28(sp)
a0804634:	afbe0018 	sw	s8,24(sp)
a0804638:	03a0f021 	move	s8,sp
a080463c:	24040003 	li	a0,3
a0804640:	00002821 	move	a1,zero
a0804644:	00003021 	move	a2,zero
a0804648:	00003821 	move	a3,zero
a080464c:	0c2002bc 	jal	a0800af0 <invoke_syscall>
a0804650:	00000000 	nop
a0804654:	03c0e821 	move	sp,s8
a0804658:	8fbf001c 	lw	ra,28(sp)
a080465c:	8fbe0018 	lw	s8,24(sp)
a0804660:	27bd0020 	addiu	sp,sp,32
a0804664:	03e00008 	jr	ra
a0804668:	00000000 	nop

a080466c <sys_block>:
a080466c:	27bdffe8 	addiu	sp,sp,-24
a0804670:	afbf0014 	sw	ra,20(sp)
a0804674:	afbe0010 	sw	s8,16(sp)
a0804678:	03a0f021 	move	s8,sp
a080467c:	afc40018 	sw	a0,24(s8)
a0804680:	8fc20018 	lw	v0,24(s8)
a0804684:	2404000a 	li	a0,10
a0804688:	00402821 	move	a1,v0
a080468c:	00003021 	move	a2,zero
a0804690:	00003821 	move	a3,zero
a0804694:	0c2002bc 	jal	a0800af0 <invoke_syscall>
a0804698:	00000000 	nop
a080469c:	03c0e821 	move	sp,s8
a08046a0:	8fbf0014 	lw	ra,20(sp)
a08046a4:	8fbe0010 	lw	s8,16(sp)
a08046a8:	27bd0018 	addiu	sp,sp,24
a08046ac:	03e00008 	jr	ra
a08046b0:	00000000 	nop

a08046b4 <sys_unblock_one>:
a08046b4:	27bdffe8 	addiu	sp,sp,-24
a08046b8:	afbf0014 	sw	ra,20(sp)
a08046bc:	afbe0010 	sw	s8,16(sp)
a08046c0:	03a0f021 	move	s8,sp
a08046c4:	afc40018 	sw	a0,24(s8)
a08046c8:	8fc20018 	lw	v0,24(s8)
a08046cc:	2404000b 	li	a0,11
a08046d0:	00402821 	move	a1,v0
a08046d4:	00003021 	move	a2,zero
a08046d8:	00003821 	move	a3,zero
a08046dc:	0c2002bc 	jal	a0800af0 <invoke_syscall>
a08046e0:	00000000 	nop
a08046e4:	03c0e821 	move	sp,s8
a08046e8:	8fbf0014 	lw	ra,20(sp)
a08046ec:	8fbe0010 	lw	s8,16(sp)
a08046f0:	27bd0018 	addiu	sp,sp,24
a08046f4:	03e00008 	jr	ra
a08046f8:	00000000 	nop

a08046fc <sys_unblock_all>:
a08046fc:	27bdffe8 	addiu	sp,sp,-24
a0804700:	afbf0014 	sw	ra,20(sp)
a0804704:	afbe0010 	sw	s8,16(sp)
a0804708:	03a0f021 	move	s8,sp
a080470c:	afc40018 	sw	a0,24(s8)
a0804710:	8fc20018 	lw	v0,24(s8)
a0804714:	2404000c 	li	a0,12
a0804718:	00402821 	move	a1,v0
a080471c:	00003021 	move	a2,zero
a0804720:	00003821 	move	a3,zero
a0804724:	0c2002bc 	jal	a0800af0 <invoke_syscall>
a0804728:	00000000 	nop
a080472c:	03c0e821 	move	sp,s8
a0804730:	8fbf0014 	lw	ra,20(sp)
a0804734:	8fbe0010 	lw	s8,16(sp)
a0804738:	27bd0018 	addiu	sp,sp,24
a080473c:	03e00008 	jr	ra
a0804740:	00000000 	nop

a0804744 <sys_write>:
a0804744:	27bdffe8 	addiu	sp,sp,-24
a0804748:	afbf0014 	sw	ra,20(sp)
a080474c:	afbe0010 	sw	s8,16(sp)
a0804750:	03a0f021 	move	s8,sp
a0804754:	afc40018 	sw	a0,24(s8)
a0804758:	8fc20018 	lw	v0,24(s8)
a080475c:	24040014 	li	a0,20
a0804760:	00402821 	move	a1,v0
a0804764:	00003021 	move	a2,zero
a0804768:	00003821 	move	a3,zero
a080476c:	0c2002bc 	jal	a0800af0 <invoke_syscall>
a0804770:	00000000 	nop
a0804774:	03c0e821 	move	sp,s8
a0804778:	8fbf0014 	lw	ra,20(sp)
a080477c:	8fbe0010 	lw	s8,16(sp)
a0804780:	27bd0018 	addiu	sp,sp,24
a0804784:	03e00008 	jr	ra
a0804788:	00000000 	nop

a080478c <sys_reflush>:
a080478c:	27bdffe8 	addiu	sp,sp,-24
a0804790:	afbf0014 	sw	ra,20(sp)
a0804794:	afbe0010 	sw	s8,16(sp)
a0804798:	03a0f021 	move	s8,sp
a080479c:	24040017 	li	a0,23
a08047a0:	00002821 	move	a1,zero
a08047a4:	00003021 	move	a2,zero
a08047a8:	00003821 	move	a3,zero
a08047ac:	0c2002bc 	jal	a0800af0 <invoke_syscall>
a08047b0:	00000000 	nop
a08047b4:	03c0e821 	move	sp,s8
a08047b8:	8fbf0014 	lw	ra,20(sp)
a08047bc:	8fbe0010 	lw	s8,16(sp)
a08047c0:	27bd0018 	addiu	sp,sp,24
a08047c4:	03e00008 	jr	ra
a08047c8:	00000000 	nop

a08047cc <sys_ps>:
a08047cc:	27bdffe8 	addiu	sp,sp,-24
a08047d0:	afbf0014 	sw	ra,20(sp)
a08047d4:	afbe0010 	sw	s8,16(sp)
a08047d8:	03a0f021 	move	s8,sp
a08047dc:	24040018 	li	a0,24
a08047e0:	00002821 	move	a1,zero
a08047e4:	00003021 	move	a2,zero
a08047e8:	00003821 	move	a3,zero
a08047ec:	0c2002bc 	jal	a0800af0 <invoke_syscall>
a08047f0:	00000000 	nop
a08047f4:	03c0e821 	move	sp,s8
a08047f8:	8fbf0014 	lw	ra,20(sp)
a08047fc:	8fbe0010 	lw	s8,16(sp)
a0804800:	27bd0018 	addiu	sp,sp,24
a0804804:	03e00008 	jr	ra
a0804808:	00000000 	nop

a080480c <sys_clear>:
a080480c:	27bdffe8 	addiu	sp,sp,-24
a0804810:	afbf0014 	sw	ra,20(sp)
a0804814:	afbe0010 	sw	s8,16(sp)
a0804818:	03a0f021 	move	s8,sp
a080481c:	24040019 	li	a0,25
a0804820:	00002821 	move	a1,zero
a0804824:	00003021 	move	a2,zero
a0804828:	00003821 	move	a3,zero
a080482c:	0c2002bc 	jal	a0800af0 <invoke_syscall>
a0804830:	00000000 	nop
a0804834:	03c0e821 	move	sp,s8
a0804838:	8fbf0014 	lw	ra,20(sp)
a080483c:	8fbe0010 	lw	s8,16(sp)
a0804840:	27bd0018 	addiu	sp,sp,24
a0804844:	03e00008 	jr	ra
a0804848:	00000000 	nop

a080484c <sys_spawn>:
a080484c:	27bdffe8 	addiu	sp,sp,-24
a0804850:	afbf0014 	sw	ra,20(sp)
a0804854:	afbe0010 	sw	s8,16(sp)
a0804858:	03a0f021 	move	s8,sp
a080485c:	afc40018 	sw	a0,24(s8)
a0804860:	8fc20018 	lw	v0,24(s8)
a0804864:	2404001a 	li	a0,26
a0804868:	00402821 	move	a1,v0
a080486c:	00003021 	move	a2,zero
a0804870:	00003821 	move	a3,zero
a0804874:	0c2002bc 	jal	a0800af0 <invoke_syscall>
a0804878:	00000000 	nop
a080487c:	03c0e821 	move	sp,s8
a0804880:	8fbf0014 	lw	ra,20(sp)
a0804884:	8fbe0010 	lw	s8,16(sp)
a0804888:	27bd0018 	addiu	sp,sp,24
a080488c:	03e00008 	jr	ra
a0804890:	00000000 	nop

a0804894 <sys_kill>:
a0804894:	27bdffe8 	addiu	sp,sp,-24
a0804898:	afbf0014 	sw	ra,20(sp)
a080489c:	afbe0010 	sw	s8,16(sp)
a08048a0:	03a0f021 	move	s8,sp
a08048a4:	afc40018 	sw	a0,24(s8)
a08048a8:	2404001b 	li	a0,27
a08048ac:	8fc50018 	lw	a1,24(s8)
a08048b0:	00003021 	move	a2,zero
a08048b4:	00003821 	move	a3,zero
a08048b8:	0c2002bc 	jal	a0800af0 <invoke_syscall>
a08048bc:	00000000 	nop
a08048c0:	03c0e821 	move	sp,s8
a08048c4:	8fbf0014 	lw	ra,20(sp)
a08048c8:	8fbe0010 	lw	s8,16(sp)
a08048cc:	27bd0018 	addiu	sp,sp,24
a08048d0:	03e00008 	jr	ra
a08048d4:	00000000 	nop

a08048d8 <sys_exit>:
a08048d8:	27bdffe8 	addiu	sp,sp,-24
a08048dc:	afbf0014 	sw	ra,20(sp)
a08048e0:	afbe0010 	sw	s8,16(sp)
a08048e4:	03a0f021 	move	s8,sp
a08048e8:	2404001c 	li	a0,28
a08048ec:	00002821 	move	a1,zero
a08048f0:	00003021 	move	a2,zero
a08048f4:	00003821 	move	a3,zero
a08048f8:	0c2002bc 	jal	a0800af0 <invoke_syscall>
a08048fc:	00000000 	nop
a0804900:	03c0e821 	move	sp,s8
a0804904:	8fbf0014 	lw	ra,20(sp)
a0804908:	8fbe0010 	lw	s8,16(sp)
a080490c:	27bd0018 	addiu	sp,sp,24
a0804910:	03e00008 	jr	ra
a0804914:	00000000 	nop

a0804918 <sys_waitpid>:
a0804918:	27bdffe8 	addiu	sp,sp,-24
a080491c:	afbf0014 	sw	ra,20(sp)
a0804920:	afbe0010 	sw	s8,16(sp)
a0804924:	03a0f021 	move	s8,sp
a0804928:	afc40018 	sw	a0,24(s8)
a080492c:	2404001d 	li	a0,29
a0804930:	8fc50018 	lw	a1,24(s8)
a0804934:	00003021 	move	a2,zero
a0804938:	00003821 	move	a3,zero
a080493c:	0c2002bc 	jal	a0800af0 <invoke_syscall>
a0804940:	00000000 	nop
a0804944:	03c0e821 	move	sp,s8
a0804948:	8fbf0014 	lw	ra,20(sp)
a080494c:	8fbe0010 	lw	s8,16(sp)
a0804950:	27bd0018 	addiu	sp,sp,24
a0804954:	03e00008 	jr	ra
a0804958:	00000000 	nop

a080495c <sys_clear_all>:
a080495c:	27bdffe8 	addiu	sp,sp,-24
a0804960:	afbf0014 	sw	ra,20(sp)
a0804964:	afbe0010 	sw	s8,16(sp)
a0804968:	03a0f021 	move	s8,sp
a080496c:	24040021 	li	a0,33
a0804970:	00002821 	move	a1,zero
a0804974:	00003021 	move	a2,zero
a0804978:	00003821 	move	a3,zero
a080497c:	0c2002bc 	jal	a0800af0 <invoke_syscall>
a0804980:	00000000 	nop
a0804984:	03c0e821 	move	sp,s8
a0804988:	8fbf0014 	lw	ra,20(sp)
a080498c:	8fbe0010 	lw	s8,16(sp)
a0804990:	27bd0018 	addiu	sp,sp,24
a0804994:	03e00008 	jr	ra
a0804998:	00000000 	nop

a080499c <barrier_init>:
a080499c:	27bdffe8 	addiu	sp,sp,-24
a08049a0:	afbf0014 	sw	ra,20(sp)
a08049a4:	afbe0010 	sw	s8,16(sp)
a08049a8:	03a0f021 	move	s8,sp
a08049ac:	afc40018 	sw	a0,24(s8)
a08049b0:	afc5001c 	sw	a1,28(s8)
a08049b4:	8fc20018 	lw	v0,24(s8)
a08049b8:	24040022 	li	a0,34
a08049bc:	00402821 	move	a1,v0
a08049c0:	8fc6001c 	lw	a2,28(s8)
a08049c4:	00003821 	move	a3,zero
a08049c8:	0c2002bc 	jal	a0800af0 <invoke_syscall>
a08049cc:	00000000 	nop
a08049d0:	03c0e821 	move	sp,s8
a08049d4:	8fbf0014 	lw	ra,20(sp)
a08049d8:	8fbe0010 	lw	s8,16(sp)
a08049dc:	27bd0018 	addiu	sp,sp,24
a08049e0:	03e00008 	jr	ra
a08049e4:	00000000 	nop

a08049e8 <barrier_wait>:
a08049e8:	27bdffe8 	addiu	sp,sp,-24
a08049ec:	afbf0014 	sw	ra,20(sp)
a08049f0:	afbe0010 	sw	s8,16(sp)
a08049f4:	03a0f021 	move	s8,sp
a08049f8:	afc40018 	sw	a0,24(s8)
a08049fc:	8fc20018 	lw	v0,24(s8)
a0804a00:	24040023 	li	a0,35
a0804a04:	00402821 	move	a1,v0
a0804a08:	00003021 	move	a2,zero
a0804a0c:	00003821 	move	a3,zero
a0804a10:	0c2002bc 	jal	a0800af0 <invoke_syscall>
a0804a14:	00000000 	nop
a0804a18:	03c0e821 	move	sp,s8
a0804a1c:	8fbf0014 	lw	ra,20(sp)
a0804a20:	8fbe0010 	lw	s8,16(sp)
a0804a24:	27bd0018 	addiu	sp,sp,24
a0804a28:	03e00008 	jr	ra
a0804a2c:	00000000 	nop

a0804a30 <semaphore_init>:
a0804a30:	27bdffe8 	addiu	sp,sp,-24
a0804a34:	afbf0014 	sw	ra,20(sp)
a0804a38:	afbe0010 	sw	s8,16(sp)
a0804a3c:	03a0f021 	move	s8,sp
a0804a40:	afc40018 	sw	a0,24(s8)
a0804a44:	afc5001c 	sw	a1,28(s8)
a0804a48:	8fc20018 	lw	v0,24(s8)
a0804a4c:	24040024 	li	a0,36
a0804a50:	00402821 	move	a1,v0
a0804a54:	8fc6001c 	lw	a2,28(s8)
a0804a58:	00003821 	move	a3,zero
a0804a5c:	0c2002bc 	jal	a0800af0 <invoke_syscall>
a0804a60:	00000000 	nop
a0804a64:	03c0e821 	move	sp,s8
a0804a68:	8fbf0014 	lw	ra,20(sp)
a0804a6c:	8fbe0010 	lw	s8,16(sp)
a0804a70:	27bd0018 	addiu	sp,sp,24
a0804a74:	03e00008 	jr	ra
a0804a78:	00000000 	nop

a0804a7c <semaphore_up>:
a0804a7c:	27bdffe8 	addiu	sp,sp,-24
a0804a80:	afbf0014 	sw	ra,20(sp)
a0804a84:	afbe0010 	sw	s8,16(sp)
a0804a88:	03a0f021 	move	s8,sp
a0804a8c:	afc40018 	sw	a0,24(s8)
a0804a90:	8fc20018 	lw	v0,24(s8)
a0804a94:	24040025 	li	a0,37
a0804a98:	00402821 	move	a1,v0
a0804a9c:	00003021 	move	a2,zero
a0804aa0:	00003821 	move	a3,zero
a0804aa4:	0c2002bc 	jal	a0800af0 <invoke_syscall>
a0804aa8:	00000000 	nop
a0804aac:	03c0e821 	move	sp,s8
a0804ab0:	8fbf0014 	lw	ra,20(sp)
a0804ab4:	8fbe0010 	lw	s8,16(sp)
a0804ab8:	27bd0018 	addiu	sp,sp,24
a0804abc:	03e00008 	jr	ra
a0804ac0:	00000000 	nop

a0804ac4 <semaphore_down>:
a0804ac4:	27bdffe8 	addiu	sp,sp,-24
a0804ac8:	afbf0014 	sw	ra,20(sp)
a0804acc:	afbe0010 	sw	s8,16(sp)
a0804ad0:	03a0f021 	move	s8,sp
a0804ad4:	afc40018 	sw	a0,24(s8)
a0804ad8:	8fc20018 	lw	v0,24(s8)
a0804adc:	24040026 	li	a0,38
a0804ae0:	00402821 	move	a1,v0
a0804ae4:	00003021 	move	a2,zero
a0804ae8:	00003821 	move	a3,zero
a0804aec:	0c2002bc 	jal	a0800af0 <invoke_syscall>
a0804af0:	00000000 	nop
a0804af4:	03c0e821 	move	sp,s8
a0804af8:	8fbf0014 	lw	ra,20(sp)
a0804afc:	8fbe0010 	lw	s8,16(sp)
a0804b00:	27bd0018 	addiu	sp,sp,24
a0804b04:	03e00008 	jr	ra
a0804b08:	00000000 	nop

a0804b0c <condition_init>:
a0804b0c:	27bdffe8 	addiu	sp,sp,-24
a0804b10:	afbf0014 	sw	ra,20(sp)
a0804b14:	afbe0010 	sw	s8,16(sp)
a0804b18:	03a0f021 	move	s8,sp
a0804b1c:	afc40018 	sw	a0,24(s8)
a0804b20:	8fc20018 	lw	v0,24(s8)
a0804b24:	24040027 	li	a0,39
a0804b28:	00402821 	move	a1,v0
a0804b2c:	00003021 	move	a2,zero
a0804b30:	00003821 	move	a3,zero
a0804b34:	0c2002bc 	jal	a0800af0 <invoke_syscall>
a0804b38:	00000000 	nop
a0804b3c:	03c0e821 	move	sp,s8
a0804b40:	8fbf0014 	lw	ra,20(sp)
a0804b44:	8fbe0010 	lw	s8,16(sp)
a0804b48:	27bd0018 	addiu	sp,sp,24
a0804b4c:	03e00008 	jr	ra
a0804b50:	00000000 	nop

a0804b54 <condition_wait>:
a0804b54:	27bdffe8 	addiu	sp,sp,-24
a0804b58:	afbf0014 	sw	ra,20(sp)
a0804b5c:	afbe0010 	sw	s8,16(sp)
a0804b60:	03a0f021 	move	s8,sp
a0804b64:	afc40018 	sw	a0,24(s8)
a0804b68:	afc5001c 	sw	a1,28(s8)
a0804b6c:	8fc20018 	lw	v0,24(s8)
a0804b70:	8fc3001c 	lw	v1,28(s8)
a0804b74:	24040028 	li	a0,40
a0804b78:	00402821 	move	a1,v0
a0804b7c:	00603021 	move	a2,v1
a0804b80:	00003821 	move	a3,zero
a0804b84:	0c2002bc 	jal	a0800af0 <invoke_syscall>
a0804b88:	00000000 	nop
a0804b8c:	03c0e821 	move	sp,s8
a0804b90:	8fbf0014 	lw	ra,20(sp)
a0804b94:	8fbe0010 	lw	s8,16(sp)
a0804b98:	27bd0018 	addiu	sp,sp,24
a0804b9c:	03e00008 	jr	ra
a0804ba0:	00000000 	nop

a0804ba4 <condition_signal>:
a0804ba4:	27bdffe8 	addiu	sp,sp,-24
a0804ba8:	afbf0014 	sw	ra,20(sp)
a0804bac:	afbe0010 	sw	s8,16(sp)
a0804bb0:	03a0f021 	move	s8,sp
a0804bb4:	afc40018 	sw	a0,24(s8)
a0804bb8:	8fc20018 	lw	v0,24(s8)
a0804bbc:	24040029 	li	a0,41
a0804bc0:	00402821 	move	a1,v0
a0804bc4:	00003021 	move	a2,zero
a0804bc8:	00003821 	move	a3,zero
a0804bcc:	0c2002bc 	jal	a0800af0 <invoke_syscall>
a0804bd0:	00000000 	nop
a0804bd4:	03c0e821 	move	sp,s8
a0804bd8:	8fbf0014 	lw	ra,20(sp)
a0804bdc:	8fbe0010 	lw	s8,16(sp)
a0804be0:	27bd0018 	addiu	sp,sp,24
a0804be4:	03e00008 	jr	ra
a0804be8:	00000000 	nop

a0804bec <condition_broadcast>:
a0804bec:	27bdffe8 	addiu	sp,sp,-24
a0804bf0:	afbf0014 	sw	ra,20(sp)
a0804bf4:	afbe0010 	sw	s8,16(sp)
a0804bf8:	03a0f021 	move	s8,sp
a0804bfc:	afc40018 	sw	a0,24(s8)
a0804c00:	8fc20018 	lw	v0,24(s8)
a0804c04:	2404002a 	li	a0,42
a0804c08:	00402821 	move	a1,v0
a0804c0c:	00003021 	move	a2,zero
a0804c10:	00003821 	move	a3,zero
a0804c14:	0c2002bc 	jal	a0800af0 <invoke_syscall>
a0804c18:	00000000 	nop
a0804c1c:	03c0e821 	move	sp,s8
a0804c20:	8fbf0014 	lw	ra,20(sp)
a0804c24:	8fbe0010 	lw	s8,16(sp)
a0804c28:	27bd0018 	addiu	sp,sp,24
a0804c2c:	03e00008 	jr	ra
a0804c30:	00000000 	nop

a0804c34 <sys_move_cursor>:
a0804c34:	27bdffe8 	addiu	sp,sp,-24
a0804c38:	afbf0014 	sw	ra,20(sp)
a0804c3c:	afbe0010 	sw	s8,16(sp)
a0804c40:	03a0f021 	move	s8,sp
a0804c44:	afc40018 	sw	a0,24(s8)
a0804c48:	afc5001c 	sw	a1,28(s8)
a0804c4c:	24040016 	li	a0,22
a0804c50:	8fc50018 	lw	a1,24(s8)
a0804c54:	8fc6001c 	lw	a2,28(s8)
a0804c58:	00003821 	move	a3,zero
a0804c5c:	0c2002bc 	jal	a0800af0 <invoke_syscall>
a0804c60:	00000000 	nop
a0804c64:	03c0e821 	move	sp,s8
a0804c68:	8fbf0014 	lw	ra,20(sp)
a0804c6c:	8fbe0010 	lw	s8,16(sp)
a0804c70:	27bd0018 	addiu	sp,sp,24
a0804c74:	03e00008 	jr	ra
a0804c78:	00000000 	nop

a0804c7c <mutex_lock_init>:
a0804c7c:	27bdffe8 	addiu	sp,sp,-24
a0804c80:	afbf0014 	sw	ra,20(sp)
a0804c84:	afbe0010 	sw	s8,16(sp)
a0804c88:	03a0f021 	move	s8,sp
a0804c8c:	afc40018 	sw	a0,24(s8)
a0804c90:	8fc20018 	lw	v0,24(s8)
a0804c94:	2404001e 	li	a0,30
a0804c98:	00402821 	move	a1,v0
a0804c9c:	00003021 	move	a2,zero
a0804ca0:	00003821 	move	a3,zero
a0804ca4:	0c2002bc 	jal	a0800af0 <invoke_syscall>
a0804ca8:	00000000 	nop
a0804cac:	03c0e821 	move	sp,s8
a0804cb0:	8fbf0014 	lw	ra,20(sp)
a0804cb4:	8fbe0010 	lw	s8,16(sp)
a0804cb8:	27bd0018 	addiu	sp,sp,24
a0804cbc:	03e00008 	jr	ra
a0804cc0:	00000000 	nop

a0804cc4 <mutex_lock_acquire>:
a0804cc4:	27bdffe8 	addiu	sp,sp,-24
a0804cc8:	afbf0014 	sw	ra,20(sp)
a0804ccc:	afbe0010 	sw	s8,16(sp)
a0804cd0:	03a0f021 	move	s8,sp
a0804cd4:	afc40018 	sw	a0,24(s8)
a0804cd8:	8fc20018 	lw	v0,24(s8)
a0804cdc:	2404001f 	li	a0,31
a0804ce0:	00402821 	move	a1,v0
a0804ce4:	00003021 	move	a2,zero
a0804ce8:	00003821 	move	a3,zero
a0804cec:	0c2002bc 	jal	a0800af0 <invoke_syscall>
a0804cf0:	00000000 	nop
a0804cf4:	03c0e821 	move	sp,s8
a0804cf8:	8fbf0014 	lw	ra,20(sp)
a0804cfc:	8fbe0010 	lw	s8,16(sp)
a0804d00:	27bd0018 	addiu	sp,sp,24
a0804d04:	03e00008 	jr	ra
a0804d08:	00000000 	nop

a0804d0c <mutex_lock_release>:
a0804d0c:	27bdffe8 	addiu	sp,sp,-24
a0804d10:	afbf0014 	sw	ra,20(sp)
a0804d14:	afbe0010 	sw	s8,16(sp)
a0804d18:	03a0f021 	move	s8,sp
a0804d1c:	afc40018 	sw	a0,24(s8)
a0804d20:	8fc20018 	lw	v0,24(s8)
a0804d24:	24040020 	li	a0,32
a0804d28:	00402821 	move	a1,v0
a0804d2c:	00003021 	move	a2,zero
a0804d30:	00003821 	move	a3,zero
a0804d34:	0c2002bc 	jal	a0800af0 <invoke_syscall>
a0804d38:	00000000 	nop
a0804d3c:	03c0e821 	move	sp,s8
a0804d40:	8fbf0014 	lw	ra,20(sp)
a0804d44:	8fbe0010 	lw	s8,16(sp)
a0804d48:	27bd0018 	addiu	sp,sp,24
a0804d4c:	03e00008 	jr	ra
a0804d50:	00000000 	nop
	...

a0804d60 <strlen>:
a0804d60:	27bdfff0 	addiu	sp,sp,-16
a0804d64:	afbe000c 	sw	s8,12(sp)
a0804d68:	03a0f021 	move	s8,sp
a0804d6c:	afc40010 	sw	a0,16(s8)
a0804d70:	afc00000 	sw	zero,0(s8)
a0804d74:	08201362 	j	a0804d88 <strlen+0x28>
a0804d78:	00000000 	nop
a0804d7c:	8fc20000 	lw	v0,0(s8)
a0804d80:	24420001 	addiu	v0,v0,1
a0804d84:	afc20000 	sw	v0,0(s8)
a0804d88:	8fc30000 	lw	v1,0(s8)
a0804d8c:	8fc20010 	lw	v0,16(s8)
a0804d90:	00431021 	addu	v0,v0,v1
a0804d94:	80420000 	lb	v0,0(v0)
a0804d98:	1440fff8 	bnez	v0,a0804d7c <strlen+0x1c>
a0804d9c:	00000000 	nop
a0804da0:	8fc20000 	lw	v0,0(s8)
a0804da4:	03c0e821 	move	sp,s8
a0804da8:	8fbe000c 	lw	s8,12(sp)
a0804dac:	27bd0010 	addiu	sp,sp,16
a0804db0:	03e00008 	jr	ra
a0804db4:	00000000 	nop

a0804db8 <memcpy>:
a0804db8:	27bdfff8 	addiu	sp,sp,-8
a0804dbc:	afbe0004 	sw	s8,4(sp)
a0804dc0:	03a0f021 	move	s8,sp
a0804dc4:	afc40008 	sw	a0,8(s8)
a0804dc8:	afc5000c 	sw	a1,12(s8)
a0804dcc:	afc60010 	sw	a2,16(s8)
a0804dd0:	08201383 	j	a0804e0c <memcpy+0x54>
a0804dd4:	00000000 	nop
a0804dd8:	8fc2000c 	lw	v0,12(s8)
a0804ddc:	90430000 	lbu	v1,0(v0)
a0804de0:	8fc20008 	lw	v0,8(s8)
a0804de4:	a0430000 	sb	v1,0(v0)
a0804de8:	8fc20008 	lw	v0,8(s8)
a0804dec:	24420001 	addiu	v0,v0,1
a0804df0:	afc20008 	sw	v0,8(s8)
a0804df4:	8fc2000c 	lw	v0,12(s8)
a0804df8:	24420001 	addiu	v0,v0,1
a0804dfc:	afc2000c 	sw	v0,12(s8)
a0804e00:	8fc20010 	lw	v0,16(s8)
a0804e04:	2442ffff 	addiu	v0,v0,-1
a0804e08:	afc20010 	sw	v0,16(s8)
a0804e0c:	8fc20010 	lw	v0,16(s8)
a0804e10:	1440fff1 	bnez	v0,a0804dd8 <memcpy+0x20>
a0804e14:	00000000 	nop
a0804e18:	03c0e821 	move	sp,s8
a0804e1c:	8fbe0004 	lw	s8,4(sp)
a0804e20:	27bd0008 	addiu	sp,sp,8
a0804e24:	03e00008 	jr	ra
a0804e28:	00000000 	nop

a0804e2c <memset>:
a0804e2c:	27bdfff0 	addiu	sp,sp,-16
a0804e30:	afbe000c 	sw	s8,12(sp)
a0804e34:	03a0f021 	move	s8,sp
a0804e38:	afc40010 	sw	a0,16(s8)
a0804e3c:	00a01021 	move	v0,a1
a0804e40:	afc60018 	sw	a2,24(s8)
a0804e44:	a3c20014 	sb	v0,20(s8)
a0804e48:	8fc20010 	lw	v0,16(s8)
a0804e4c:	afc20000 	sw	v0,0(s8)
a0804e50:	0820139f 	j	a0804e7c <memset+0x50>
a0804e54:	00000000 	nop
a0804e58:	8fc30000 	lw	v1,0(s8)
a0804e5c:	93c20014 	lbu	v0,20(s8)
a0804e60:	a0620000 	sb	v0,0(v1)
a0804e64:	8fc20000 	lw	v0,0(s8)
a0804e68:	24420001 	addiu	v0,v0,1
a0804e6c:	afc20000 	sw	v0,0(s8)
a0804e70:	8fc20018 	lw	v0,24(s8)
a0804e74:	2442ffff 	addiu	v0,v0,-1
a0804e78:	afc20018 	sw	v0,24(s8)
a0804e7c:	8fc20018 	lw	v0,24(s8)
a0804e80:	1440fff5 	bnez	v0,a0804e58 <memset+0x2c>
a0804e84:	00000000 	nop
a0804e88:	03c0e821 	move	sp,s8
a0804e8c:	8fbe000c 	lw	s8,12(sp)
a0804e90:	27bd0010 	addiu	sp,sp,16
a0804e94:	03e00008 	jr	ra
a0804e98:	00000000 	nop

a0804e9c <bzero>:
a0804e9c:	27bdffe8 	addiu	sp,sp,-24
a0804ea0:	afbf0014 	sw	ra,20(sp)
a0804ea4:	afbe0010 	sw	s8,16(sp)
a0804ea8:	03a0f021 	move	s8,sp
a0804eac:	afc40018 	sw	a0,24(s8)
a0804eb0:	afc5001c 	sw	a1,28(s8)
a0804eb4:	8fc40018 	lw	a0,24(s8)
a0804eb8:	00002821 	move	a1,zero
a0804ebc:	8fc6001c 	lw	a2,28(s8)
a0804ec0:	0c20138b 	jal	a0804e2c <memset>
a0804ec4:	00000000 	nop
a0804ec8:	03c0e821 	move	sp,s8
a0804ecc:	8fbf0014 	lw	ra,20(sp)
a0804ed0:	8fbe0010 	lw	s8,16(sp)
a0804ed4:	27bd0018 	addiu	sp,sp,24
a0804ed8:	03e00008 	jr	ra
a0804edc:	00000000 	nop

a0804ee0 <strcmp>:
a0804ee0:	27bdfff8 	addiu	sp,sp,-8
a0804ee4:	afbe0004 	sw	s8,4(sp)
a0804ee8:	03a0f021 	move	s8,sp
a0804eec:	afc40008 	sw	a0,8(s8)
a0804ef0:	afc5000c 	sw	a1,12(s8)
a0804ef4:	082013c5 	j	a0804f14 <strcmp+0x34>
a0804ef8:	00000000 	nop
a0804efc:	8fc20008 	lw	v0,8(s8)
a0804f00:	24420001 	addiu	v0,v0,1
a0804f04:	afc20008 	sw	v0,8(s8)
a0804f08:	8fc2000c 	lw	v0,12(s8)
a0804f0c:	24420001 	addiu	v0,v0,1
a0804f10:	afc2000c 	sw	v0,12(s8)
a0804f14:	8fc20008 	lw	v0,8(s8)
a0804f18:	80420000 	lb	v0,0(v0)
a0804f1c:	1040000b 	beqz	v0,a0804f4c <strcmp+0x6c>
a0804f20:	00000000 	nop
a0804f24:	8fc2000c 	lw	v0,12(s8)
a0804f28:	80420000 	lb	v0,0(v0)
a0804f2c:	10400007 	beqz	v0,a0804f4c <strcmp+0x6c>
a0804f30:	00000000 	nop
a0804f34:	8fc20008 	lw	v0,8(s8)
a0804f38:	80430000 	lb	v1,0(v0)
a0804f3c:	8fc2000c 	lw	v0,12(s8)
a0804f40:	80420000 	lb	v0,0(v0)
a0804f44:	1062ffed 	beq	v1,v0,a0804efc <strcmp+0x1c>
a0804f48:	00000000 	nop
a0804f4c:	8fc20008 	lw	v0,8(s8)
a0804f50:	80420000 	lb	v0,0(v0)
a0804f54:	00401821 	move	v1,v0
a0804f58:	8fc2000c 	lw	v0,12(s8)
a0804f5c:	80420000 	lb	v0,0(v0)
a0804f60:	00621023 	subu	v0,v1,v0
a0804f64:	03c0e821 	move	sp,s8
a0804f68:	8fbe0004 	lw	s8,4(sp)
a0804f6c:	27bd0008 	addiu	sp,sp,8
a0804f70:	03e00008 	jr	ra
a0804f74:	00000000 	nop

a0804f78 <memcmp>:
a0804f78:	27bdffe8 	addiu	sp,sp,-24
a0804f7c:	afbe0014 	sw	s8,20(sp)
a0804f80:	03a0f021 	move	s8,sp
a0804f84:	afc40018 	sw	a0,24(s8)
a0804f88:	afc5001c 	sw	a1,28(s8)
a0804f8c:	afc60020 	sw	a2,32(s8)
a0804f90:	afc00000 	sw	zero,0(s8)
a0804f94:	08201408 	j	a0805020 <memcmp+0xa8>
a0804f98:	00000000 	nop
a0804f9c:	8fc30000 	lw	v1,0(s8)
a0804fa0:	8fc20018 	lw	v0,24(s8)
a0804fa4:	00431021 	addu	v0,v0,v1
a0804fa8:	80440000 	lb	a0,0(v0)
a0804fac:	8fc30000 	lw	v1,0(s8)
a0804fb0:	8fc2001c 	lw	v0,28(s8)
a0804fb4:	00431021 	addu	v0,v0,v1
a0804fb8:	80420000 	lb	v0,0(v0)
a0804fbc:	0044102a 	slt	v0,v0,a0
a0804fc0:	10400005 	beqz	v0,a0804fd8 <memcmp+0x60>
a0804fc4:	00000000 	nop
a0804fc8:	24020001 	li	v0,1
a0804fcc:	afc20008 	sw	v0,8(s8)
a0804fd0:	0820140e 	j	a0805038 <memcmp+0xc0>
a0804fd4:	00000000 	nop
a0804fd8:	8fc30000 	lw	v1,0(s8)
a0804fdc:	8fc20018 	lw	v0,24(s8)
a0804fe0:	00431021 	addu	v0,v0,v1
a0804fe4:	80440000 	lb	a0,0(v0)
a0804fe8:	8fc30000 	lw	v1,0(s8)
a0804fec:	8fc2001c 	lw	v0,28(s8)
a0804ff0:	00431021 	addu	v0,v0,v1
a0804ff4:	80420000 	lb	v0,0(v0)
a0804ff8:	0082102a 	slt	v0,a0,v0
a0804ffc:	10400005 	beqz	v0,a0805014 <memcmp+0x9c>
a0805000:	00000000 	nop
a0805004:	2402ffff 	li	v0,-1
a0805008:	afc20008 	sw	v0,8(s8)
a080500c:	0820140e 	j	a0805038 <memcmp+0xc0>
a0805010:	00000000 	nop
a0805014:	8fc20000 	lw	v0,0(s8)
a0805018:	24420001 	addiu	v0,v0,1
a080501c:	afc20000 	sw	v0,0(s8)
a0805020:	8fc20000 	lw	v0,0(s8)
a0805024:	8fc30020 	lw	v1,32(s8)
a0805028:	0043102b 	sltu	v0,v0,v1
a080502c:	1440ffdb 	bnez	v0,a0804f9c <memcmp+0x24>
a0805030:	00000000 	nop
a0805034:	afc00008 	sw	zero,8(s8)
a0805038:	8fc20008 	lw	v0,8(s8)
a080503c:	03c0e821 	move	sp,s8
a0805040:	8fbe0014 	lw	s8,20(sp)
a0805044:	27bd0018 	addiu	sp,sp,24
a0805048:	03e00008 	jr	ra
a080504c:	00000000 	nop

a0805050 <strcpy>:
a0805050:	27bdffe0 	addiu	sp,sp,-32
a0805054:	afbf001c 	sw	ra,28(sp)
a0805058:	afbe0018 	sw	s8,24(sp)
a080505c:	03a0f021 	move	s8,sp
a0805060:	afc40020 	sw	a0,32(s8)
a0805064:	afc50024 	sw	a1,36(s8)
a0805068:	8fc40024 	lw	a0,36(s8)
a080506c:	0c201358 	jal	a0804d60 <strlen>
a0805070:	00000000 	nop
a0805074:	afc20014 	sw	v0,20(s8)
a0805078:	afc00010 	sw	zero,16(s8)
a080507c:	0820142c 	j	a08050b0 <strcpy+0x60>
a0805080:	00000000 	nop
a0805084:	8fc30010 	lw	v1,16(s8)
a0805088:	8fc20020 	lw	v0,32(s8)
a080508c:	00432021 	addu	a0,v0,v1
a0805090:	8fc30010 	lw	v1,16(s8)
a0805094:	8fc20024 	lw	v0,36(s8)
a0805098:	00431021 	addu	v0,v0,v1
a080509c:	80420000 	lb	v0,0(v0)
a08050a0:	a0820000 	sb	v0,0(a0)
a08050a4:	8fc20010 	lw	v0,16(s8)
a08050a8:	24420001 	addiu	v0,v0,1
a08050ac:	afc20010 	sw	v0,16(s8)
a08050b0:	8fc20010 	lw	v0,16(s8)
a08050b4:	8fc30014 	lw	v1,20(s8)
a08050b8:	0043102a 	slt	v0,v0,v1
a08050bc:	1440fff1 	bnez	v0,a0805084 <strcpy+0x34>
a08050c0:	00000000 	nop
a08050c4:	8fc20010 	lw	v0,16(s8)
a08050c8:	8fc30020 	lw	v1,32(s8)
a08050cc:	00621021 	addu	v0,v1,v0
a08050d0:	a0400000 	sb	zero,0(v0)
a08050d4:	03c0e821 	move	sp,s8
a08050d8:	8fbf001c 	lw	ra,28(sp)
a08050dc:	8fbe0018 	lw	s8,24(sp)
a08050e0:	27bd0020 	addiu	sp,sp,32
a08050e4:	03e00008 	jr	ra
a08050e8:	00000000 	nop

a08050ec <atoi>:
a08050ec:	27bdffe8 	addiu	sp,sp,-24
a08050f0:	afbe0014 	sw	s8,20(sp)
a08050f4:	03a0f021 	move	s8,sp
a08050f8:	afc40018 	sw	a0,24(s8)
a08050fc:	afc00004 	sw	zero,4(s8)
a0805100:	afc00000 	sw	zero,0(s8)
a0805104:	08201446 	j	a0805118 <atoi+0x2c>
a0805108:	00000000 	nop
a080510c:	8fc20018 	lw	v0,24(s8)
a0805110:	24420001 	addiu	v0,v0,1
a0805114:	afc20018 	sw	v0,24(s8)
a0805118:	8fc20018 	lw	v0,24(s8)
a080511c:	80430000 	lb	v1,0(v0)
a0805120:	24020020 	li	v0,32
a0805124:	1062fff9 	beq	v1,v0,a080510c <atoi+0x20>
a0805128:	00000000 	nop
a080512c:	8fc20018 	lw	v0,24(s8)
a0805130:	80430000 	lb	v1,0(v0)
a0805134:	24020009 	li	v0,9
a0805138:	1062fff4 	beq	v1,v0,a080510c <atoi+0x20>
a080513c:	00000000 	nop
a0805140:	8fc20018 	lw	v0,24(s8)
a0805144:	80430000 	lb	v1,0(v0)
a0805148:	2402000a 	li	v0,10
a080514c:	1062ffef 	beq	v1,v0,a080510c <atoi+0x20>
a0805150:	00000000 	nop
a0805154:	8fc20018 	lw	v0,24(s8)
a0805158:	80430000 	lb	v1,0(v0)
a080515c:	2402002d 	li	v0,45
a0805160:	14620008 	bne	v1,v0,a0805184 <atoi+0x98>
a0805164:	00000000 	nop
a0805168:	24020001 	li	v0,1
a080516c:	afc20000 	sw	v0,0(s8)
a0805170:	8fc20018 	lw	v0,24(s8)
a0805174:	24420001 	addiu	v0,v0,1
a0805178:	afc20018 	sw	v0,24(s8)
a080517c:	08201477 	j	a08051dc <atoi+0xf0>
a0805180:	00000000 	nop
a0805184:	8fc20018 	lw	v0,24(s8)
a0805188:	80430000 	lb	v1,0(v0)
a080518c:	2402002b 	li	v0,43
a0805190:	14620012 	bne	v1,v0,a08051dc <atoi+0xf0>
a0805194:	00000000 	nop
a0805198:	8fc20018 	lw	v0,24(s8)
a080519c:	24420001 	addiu	v0,v0,1
a08051a0:	afc20018 	sw	v0,24(s8)
a08051a4:	08201477 	j	a08051dc <atoi+0xf0>
a08051a8:	00000000 	nop
a08051ac:	8fc20004 	lw	v0,4(s8)
a08051b0:	00021840 	sll	v1,v0,0x1
a08051b4:	00031080 	sll	v0,v1,0x2
a08051b8:	00621821 	addu	v1,v1,v0
a08051bc:	8fc20018 	lw	v0,24(s8)
a08051c0:	80420000 	lb	v0,0(v0)
a08051c4:	00621021 	addu	v0,v1,v0
a08051c8:	2442ffd0 	addiu	v0,v0,-48
a08051cc:	afc20004 	sw	v0,4(s8)
a08051d0:	8fc20018 	lw	v0,24(s8)
a08051d4:	24420001 	addiu	v0,v0,1
a08051d8:	afc20018 	sw	v0,24(s8)
a08051dc:	8fc20018 	lw	v0,24(s8)
a08051e0:	80420000 	lb	v0,0(v0)
a08051e4:	28420030 	slti	v0,v0,48
a08051e8:	14400006 	bnez	v0,a0805204 <atoi+0x118>
a08051ec:	00000000 	nop
a08051f0:	8fc20018 	lw	v0,24(s8)
a08051f4:	80420000 	lb	v0,0(v0)
a08051f8:	2842003a 	slti	v0,v0,58
a08051fc:	1440ffeb 	bnez	v0,a08051ac <atoi+0xc0>
a0805200:	00000000 	nop
a0805204:	8fc30000 	lw	v1,0(s8)
a0805208:	24020001 	li	v0,1
a080520c:	14620006 	bne	v1,v0,a0805228 <atoi+0x13c>
a0805210:	00000000 	nop
a0805214:	8fc20004 	lw	v0,4(s8)
a0805218:	00021023 	negu	v0,v0
a080521c:	afc20008 	sw	v0,8(s8)
a0805220:	0820148c 	j	a0805230 <atoi+0x144>
a0805224:	00000000 	nop
a0805228:	8fc20004 	lw	v0,4(s8)
a080522c:	afc20008 	sw	v0,8(s8)
a0805230:	8fc20008 	lw	v0,8(s8)
a0805234:	03c0e821 	move	sp,s8
a0805238:	8fbe0014 	lw	s8,20(sp)
a080523c:	27bd0018 	addiu	sp,sp,24
a0805240:	03e00008 	jr	ra
a0805244:	00000000 	nop

a0805248 <atox>:
a0805248:	27bdffe8 	addiu	sp,sp,-24
a080524c:	afbe0014 	sw	s8,20(sp)
a0805250:	03a0f021 	move	s8,sp
a0805254:	afc40018 	sw	a0,24(s8)
a0805258:	afc00004 	sw	zero,4(s8)
a080525c:	afc00000 	sw	zero,0(s8)
a0805260:	0820149d 	j	a0805274 <atox+0x2c>
a0805264:	00000000 	nop
a0805268:	8fc20018 	lw	v0,24(s8)
a080526c:	24420001 	addiu	v0,v0,1
a0805270:	afc20018 	sw	v0,24(s8)
a0805274:	8fc20018 	lw	v0,24(s8)
a0805278:	80430000 	lb	v1,0(v0)
a080527c:	24020020 	li	v0,32
a0805280:	1062fff9 	beq	v1,v0,a0805268 <atox+0x20>
a0805284:	00000000 	nop
a0805288:	8fc20018 	lw	v0,24(s8)
a080528c:	80430000 	lb	v1,0(v0)
a0805290:	24020009 	li	v0,9
a0805294:	1062fff4 	beq	v1,v0,a0805268 <atox+0x20>
a0805298:	00000000 	nop
a080529c:	8fc20018 	lw	v0,24(s8)
a08052a0:	80430000 	lb	v1,0(v0)
a08052a4:	2402000a 	li	v0,10
a08052a8:	1062ffef 	beq	v1,v0,a0805268 <atox+0x20>
a08052ac:	00000000 	nop
a08052b0:	8fc20018 	lw	v0,24(s8)
a08052b4:	80430000 	lb	v1,0(v0)
a08052b8:	24020030 	li	v0,48
a08052bc:	1462000a 	bne	v1,v0,a08052e8 <atox+0xa0>
a08052c0:	00000000 	nop
a08052c4:	8fc20018 	lw	v0,24(s8)
a08052c8:	24420001 	addiu	v0,v0,1
a08052cc:	80430000 	lb	v1,0(v0)
a08052d0:	24020078 	li	v0,120
a08052d4:	14620004 	bne	v1,v0,a08052e8 <atox+0xa0>
a08052d8:	00000000 	nop
a08052dc:	8fc20018 	lw	v0,24(s8)
a08052e0:	24420002 	addiu	v0,v0,2
a08052e4:	afc20018 	sw	v0,24(s8)
a08052e8:	8fc20018 	lw	v0,24(s8)
a08052ec:	80430000 	lb	v1,0(v0)
a08052f0:	2402002d 	li	v0,45
a08052f4:	14620008 	bne	v1,v0,a0805318 <atox+0xd0>
a08052f8:	00000000 	nop
a08052fc:	24020001 	li	v0,1
a0805300:	afc20000 	sw	v0,0(s8)
a0805304:	8fc20018 	lw	v0,24(s8)
a0805308:	24420001 	addiu	v0,v0,1
a080530c:	afc20018 	sw	v0,24(s8)
a0805310:	082014f7 	j	a08053dc <atox+0x194>
a0805314:	00000000 	nop
a0805318:	8fc20018 	lw	v0,24(s8)
a080531c:	80430000 	lb	v1,0(v0)
a0805320:	2402002b 	li	v0,43
a0805324:	1462002d 	bne	v1,v0,a08053dc <atox+0x194>
a0805328:	00000000 	nop
a080532c:	8fc20018 	lw	v0,24(s8)
a0805330:	24420001 	addiu	v0,v0,1
a0805334:	afc20018 	sw	v0,24(s8)
a0805338:	082014f7 	j	a08053dc <atox+0x194>
a080533c:	00000000 	nop
a0805340:	8fc20018 	lw	v0,24(s8)
a0805344:	80420000 	lb	v0,0(v0)
a0805348:	28420030 	slti	v0,v0,48
a080534c:	1440000f 	bnez	v0,a080538c <atox+0x144>
a0805350:	00000000 	nop
a0805354:	8fc20018 	lw	v0,24(s8)
a0805358:	80420000 	lb	v0,0(v0)
a080535c:	2842003a 	slti	v0,v0,58
a0805360:	1040000a 	beqz	v0,a080538c <atox+0x144>
a0805364:	00000000 	nop
a0805368:	8fc20004 	lw	v0,4(s8)
a080536c:	00021900 	sll	v1,v0,0x4
a0805370:	8fc20018 	lw	v0,24(s8)
a0805374:	80420000 	lb	v0,0(v0)
a0805378:	00621021 	addu	v0,v1,v0
a080537c:	2442ffd0 	addiu	v0,v0,-48
a0805380:	afc20004 	sw	v0,4(s8)
a0805384:	082014f4 	j	a08053d0 <atox+0x188>
a0805388:	00000000 	nop
a080538c:	8fc20018 	lw	v0,24(s8)
a0805390:	80420000 	lb	v0,0(v0)
a0805394:	28420061 	slti	v0,v0,97
a0805398:	1440000d 	bnez	v0,a08053d0 <atox+0x188>
a080539c:	00000000 	nop
a08053a0:	8fc20018 	lw	v0,24(s8)
a08053a4:	80420000 	lb	v0,0(v0)
a08053a8:	28420067 	slti	v0,v0,103
a08053ac:	10400008 	beqz	v0,a08053d0 <atox+0x188>
a08053b0:	00000000 	nop
a08053b4:	8fc20004 	lw	v0,4(s8)
a08053b8:	00021900 	sll	v1,v0,0x4
a08053bc:	8fc20018 	lw	v0,24(s8)
a08053c0:	80420000 	lb	v0,0(v0)
a08053c4:	00621021 	addu	v0,v1,v0
a08053c8:	2442ffa9 	addiu	v0,v0,-87
a08053cc:	afc20004 	sw	v0,4(s8)
a08053d0:	8fc20018 	lw	v0,24(s8)
a08053d4:	24420001 	addiu	v0,v0,1
a08053d8:	afc20018 	sw	v0,24(s8)
a08053dc:	8fc20018 	lw	v0,24(s8)
a08053e0:	80420000 	lb	v0,0(v0)
a08053e4:	28420030 	slti	v0,v0,48
a08053e8:	14400006 	bnez	v0,a0805404 <atox+0x1bc>
a08053ec:	00000000 	nop
a08053f0:	8fc20018 	lw	v0,24(s8)
a08053f4:	80420000 	lb	v0,0(v0)
a08053f8:	2842003a 	slti	v0,v0,58
a08053fc:	1440ffd0 	bnez	v0,a0805340 <atox+0xf8>
a0805400:	00000000 	nop
a0805404:	8fc20018 	lw	v0,24(s8)
a0805408:	80420000 	lb	v0,0(v0)
a080540c:	28420061 	slti	v0,v0,97
a0805410:	14400006 	bnez	v0,a080542c <atox+0x1e4>
a0805414:	00000000 	nop
a0805418:	8fc20018 	lw	v0,24(s8)
a080541c:	80420000 	lb	v0,0(v0)
a0805420:	28420067 	slti	v0,v0,103
a0805424:	1440ffc6 	bnez	v0,a0805340 <atox+0xf8>
a0805428:	00000000 	nop
a080542c:	8fc30000 	lw	v1,0(s8)
a0805430:	24020001 	li	v0,1
a0805434:	14620006 	bne	v1,v0,a0805450 <atox+0x208>
a0805438:	00000000 	nop
a080543c:	8fc20004 	lw	v0,4(s8)
a0805440:	00021023 	negu	v0,v0
a0805444:	afc20008 	sw	v0,8(s8)
a0805448:	08201516 	j	a0805458 <atox+0x210>
a080544c:	00000000 	nop
a0805450:	8fc20004 	lw	v0,4(s8)
a0805454:	afc20008 	sw	v0,8(s8)
a0805458:	8fc20008 	lw	v0,8(s8)
a080545c:	03c0e821 	move	sp,s8
a0805460:	8fbe0014 	lw	s8,20(sp)
a0805464:	27bd0018 	addiu	sp,sp,24
a0805468:	03e00008 	jr	ra
a080546c:	00000000 	nop

a0805470 <mini_strlen>:
a0805470:	27bdfff0 	addiu	sp,sp,-16
a0805474:	afbe000c 	sw	s8,12(sp)
a0805478:	03a0f021 	move	s8,sp
a080547c:	afc40010 	sw	a0,16(s8)
a0805480:	afc00000 	sw	zero,0(s8)
a0805484:	08201526 	j	a0805498 <mini_strlen+0x28>
a0805488:	00000000 	nop
a080548c:	8fc20000 	lw	v0,0(s8)
a0805490:	24420001 	addiu	v0,v0,1
a0805494:	afc20000 	sw	v0,0(s8)
a0805498:	8fc30010 	lw	v1,16(s8)
a080549c:	8fc20000 	lw	v0,0(s8)
a08054a0:	00621021 	addu	v0,v1,v0
a08054a4:	80420000 	lb	v0,0(v0)
a08054a8:	1440fff8 	bnez	v0,a080548c <mini_strlen+0x1c>
a08054ac:	00000000 	nop
a08054b0:	8fc20000 	lw	v0,0(s8)
a08054b4:	03c0e821 	move	sp,s8
a08054b8:	8fbe000c 	lw	s8,12(sp)
a08054bc:	27bd0010 	addiu	sp,sp,16
a08054c0:	03e00008 	jr	ra
a08054c4:	00000000 	nop

a08054c8 <mini_itoa>:
a08054c8:	27bdffc8 	addiu	sp,sp,-56
a08054cc:	afbe0034 	sw	s8,52(sp)
a08054d0:	03a0f021 	move	s8,sp
a08054d4:	afc40038 	sw	a0,56(s8)
a08054d8:	afc5003c 	sw	a1,60(s8)
a08054dc:	afc60040 	sw	a2,64(s8)
a08054e0:	afc70044 	sw	a3,68(s8)
a08054e4:	8fc20048 	lw	v0,72(s8)
a08054e8:	afc20014 	sw	v0,20(s8)
a08054ec:	afc00010 	sw	zero,16(s8)
a08054f0:	8fc2003c 	lw	v0,60(s8)
a08054f4:	2c420011 	sltiu	v0,v0,17
a08054f8:	14400004 	bnez	v0,a080550c <mini_itoa+0x44>
a08054fc:	00000000 	nop
a0805500:	afc00020 	sw	zero,32(s8)
a0805504:	082015cc 	j	a0805730 <mini_itoa+0x268>
a0805508:	00000000 	nop
a080550c:	8fc20038 	lw	v0,56(s8)
a0805510:	04410009 	bgez	v0,a0805538 <mini_itoa+0x70>
a0805514:	00000000 	nop
a0805518:	8fc20044 	lw	v0,68(s8)
a080551c:	14400006 	bnez	v0,a0805538 <mini_itoa+0x70>
a0805520:	00000000 	nop
a0805524:	24020001 	li	v0,1
a0805528:	afc20010 	sw	v0,16(s8)
a080552c:	8fc20038 	lw	v0,56(s8)
a0805530:	00021023 	negu	v0,v0
a0805534:	afc20038 	sw	v0,56(s8)
a0805538:	8fc30038 	lw	v1,56(s8)
a080553c:	8fc2003c 	lw	v0,60(s8)
a0805540:	0062001b 	divu	zero,v1,v0
a0805544:	004001f4 	teq	v0,zero,0x7
a0805548:	00001010 	mfhi	v0
a080554c:	afc20004 	sw	v0,4(s8)
a0805550:	8fc20004 	lw	v0,4(s8)
a0805554:	2842000a 	slti	v0,v0,10
a0805558:	1040000a 	beqz	v0,a0805584 <mini_itoa+0xbc>
a080555c:	00000000 	nop
a0805560:	8fc20004 	lw	v0,4(s8)
a0805564:	304200ff 	andi	v0,v0,0xff
a0805568:	24420030 	addiu	v0,v0,48
a080556c:	304200ff 	andi	v0,v0,0xff
a0805570:	00021600 	sll	v0,v0,0x18
a0805574:	00021603 	sra	v0,v0,0x18
a0805578:	afc2001c 	sw	v0,28(s8)
a080557c:	08201574 	j	a08055d0 <mini_itoa+0x108>
a0805580:	00000000 	nop
a0805584:	8fc20040 	lw	v0,64(s8)
a0805588:	10400005 	beqz	v0,a08055a0 <mini_itoa+0xd8>
a080558c:	00000000 	nop
a0805590:	24020041 	li	v0,65
a0805594:	afc20018 	sw	v0,24(s8)
a0805598:	0820156a 	j	a08055a8 <mini_itoa+0xe0>
a080559c:	00000000 	nop
a08055a0:	24030061 	li	v1,97
a08055a4:	afc30018 	sw	v1,24(s8)
a08055a8:	8fc20004 	lw	v0,4(s8)
a08055ac:	304200ff 	andi	v0,v0,0xff
a08055b0:	8fc40018 	lw	a0,24(s8)
a08055b4:	00821021 	addu	v0,a0,v0
a08055b8:	304200ff 	andi	v0,v0,0xff
a08055bc:	2442fff6 	addiu	v0,v0,-10
a08055c0:	304200ff 	andi	v0,v0,0xff
a08055c4:	00021600 	sll	v0,v0,0x18
a08055c8:	00021603 	sra	v0,v0,0x18
a08055cc:	afc2001c 	sw	v0,28(s8)
a08055d0:	8fc20014 	lw	v0,20(s8)
a08055d4:	8fc3001c 	lw	v1,28(s8)
a08055d8:	a0430000 	sb	v1,0(v0)
a08055dc:	8fc20014 	lw	v0,20(s8)
a08055e0:	24420001 	addiu	v0,v0,1
a08055e4:	afc20014 	sw	v0,20(s8)
a08055e8:	8fc30038 	lw	v1,56(s8)
a08055ec:	8fc2003c 	lw	v0,60(s8)
a08055f0:	0062001b 	divu	zero,v1,v0
a08055f4:	004001f4 	teq	v0,zero,0x7
a08055f8:	00001012 	mflo	v0
a08055fc:	afc20038 	sw	v0,56(s8)
a0805600:	8fc20038 	lw	v0,56(s8)
a0805604:	1c40ffcc 	bgtz	v0,a0805538 <mini_itoa+0x70>
a0805608:	00000000 	nop
a080560c:	8fc20014 	lw	v0,20(s8)
a0805610:	8fc30048 	lw	v1,72(s8)
a0805614:	00431023 	subu	v0,v0,v1
a0805618:	afc2000c 	sw	v0,12(s8)
a080561c:	08201592 	j	a0805648 <mini_itoa+0x180>
a0805620:	00000000 	nop
a0805624:	8fc30014 	lw	v1,20(s8)
a0805628:	24020030 	li	v0,48
a080562c:	a0620000 	sb	v0,0(v1)
a0805630:	8fc20014 	lw	v0,20(s8)
a0805634:	24420001 	addiu	v0,v0,1
a0805638:	afc20014 	sw	v0,20(s8)
a080563c:	8fc2000c 	lw	v0,12(s8)
a0805640:	24420001 	addiu	v0,v0,1
a0805644:	afc2000c 	sw	v0,12(s8)
a0805648:	8fc2000c 	lw	v0,12(s8)
a080564c:	8fc3004c 	lw	v1,76(s8)
a0805650:	0043102b 	sltu	v0,v0,v1
a0805654:	1440fff3 	bnez	v0,a0805624 <mini_itoa+0x15c>
a0805658:	00000000 	nop
a080565c:	8fc20010 	lw	v0,16(s8)
a0805660:	10400007 	beqz	v0,a0805680 <mini_itoa+0x1b8>
a0805664:	00000000 	nop
a0805668:	8fc30014 	lw	v1,20(s8)
a080566c:	2402002d 	li	v0,45
a0805670:	a0620000 	sb	v0,0(v1)
a0805674:	8fc20014 	lw	v0,20(s8)
a0805678:	24420001 	addiu	v0,v0,1
a080567c:	afc20014 	sw	v0,20(s8)
a0805680:	8fc20014 	lw	v0,20(s8)
a0805684:	a0400000 	sb	zero,0(v0)
a0805688:	8fc30014 	lw	v1,20(s8)
a080568c:	8fc20048 	lw	v0,72(s8)
a0805690:	00621023 	subu	v0,v1,v0
a0805694:	afc20008 	sw	v0,8(s8)
a0805698:	afc0000c 	sw	zero,12(s8)
a080569c:	082015c4 	j	a0805710 <mini_itoa+0x248>
a08056a0:	00000000 	nop
a08056a4:	8fc30048 	lw	v1,72(s8)
a08056a8:	8fc2000c 	lw	v0,12(s8)
a08056ac:	00621021 	addu	v0,v1,v0
a08056b0:	90420000 	lbu	v0,0(v0)
a08056b4:	a3c20000 	sb	v0,0(s8)
a08056b8:	8fc30048 	lw	v1,72(s8)
a08056bc:	8fc2000c 	lw	v0,12(s8)
a08056c0:	00622021 	addu	a0,v1,v0
a08056c4:	8fc30008 	lw	v1,8(s8)
a08056c8:	8fc2000c 	lw	v0,12(s8)
a08056cc:	00621023 	subu	v0,v1,v0
a08056d0:	2443ffff 	addiu	v1,v0,-1
a08056d4:	8fc20048 	lw	v0,72(s8)
a08056d8:	00431021 	addu	v0,v0,v1
a08056dc:	80420000 	lb	v0,0(v0)
a08056e0:	a0820000 	sb	v0,0(a0)
a08056e4:	8fc30008 	lw	v1,8(s8)
a08056e8:	8fc2000c 	lw	v0,12(s8)
a08056ec:	00621023 	subu	v0,v1,v0
a08056f0:	2443ffff 	addiu	v1,v0,-1
a08056f4:	8fc20048 	lw	v0,72(s8)
a08056f8:	00431821 	addu	v1,v0,v1
a08056fc:	93c20000 	lbu	v0,0(s8)
a0805700:	a0620000 	sb	v0,0(v1)
a0805704:	8fc2000c 	lw	v0,12(s8)
a0805708:	24420001 	addiu	v0,v0,1
a080570c:	afc2000c 	sw	v0,12(s8)
a0805710:	8fc20008 	lw	v0,8(s8)
a0805714:	00021842 	srl	v1,v0,0x1
a0805718:	8fc2000c 	lw	v0,12(s8)
a080571c:	0043102b 	sltu	v0,v0,v1
a0805720:	1440ffe0 	bnez	v0,a08056a4 <mini_itoa+0x1dc>
a0805724:	00000000 	nop
a0805728:	8fc20008 	lw	v0,8(s8)
a080572c:	afc20020 	sw	v0,32(s8)
a0805730:	8fc20020 	lw	v0,32(s8)
a0805734:	03c0e821 	move	sp,s8
a0805738:	8fbe0034 	lw	s8,52(sp)
a080573c:	27bd0038 	addiu	sp,sp,56
a0805740:	03e00008 	jr	ra
a0805744:	00000000 	nop

a0805748 <_putc>:
a0805748:	27bdfff0 	addiu	sp,sp,-16
a080574c:	afbe000c 	sw	s8,12(sp)
a0805750:	03a0f021 	move	s8,sp
a0805754:	afc40010 	sw	a0,16(s8)
a0805758:	afc50014 	sw	a1,20(s8)
a080575c:	8fc20014 	lw	v0,20(s8)
a0805760:	8c420004 	lw	v0,4(v0)
a0805764:	00401821 	move	v1,v0
a0805768:	8fc20014 	lw	v0,20(s8)
a080576c:	8c420000 	lw	v0,0(v0)
a0805770:	00621023 	subu	v0,v1,v0
a0805774:	24420001 	addiu	v0,v0,1
a0805778:	00401821 	move	v1,v0
a080577c:	8fc20014 	lw	v0,20(s8)
a0805780:	8c420008 	lw	v0,8(v0)
a0805784:	0062102b 	sltu	v0,v1,v0
a0805788:	14400004 	bnez	v0,a080579c <_putc+0x54>
a080578c:	00000000 	nop
a0805790:	afc00000 	sw	zero,0(s8)
a0805794:	082015f5 	j	a08057d4 <_putc+0x8c>
a0805798:	00000000 	nop
a080579c:	8fc20014 	lw	v0,20(s8)
a08057a0:	8c430004 	lw	v1,4(v0)
a08057a4:	8fc20010 	lw	v0,16(s8)
a08057a8:	00021600 	sll	v0,v0,0x18
a08057ac:	00021603 	sra	v0,v0,0x18
a08057b0:	a0620000 	sb	v0,0(v1)
a08057b4:	24630001 	addiu	v1,v1,1
a08057b8:	8fc20014 	lw	v0,20(s8)
a08057bc:	ac430004 	sw	v1,4(v0)
a08057c0:	8fc20014 	lw	v0,20(s8)
a08057c4:	8c420004 	lw	v0,4(v0)
a08057c8:	a0400000 	sb	zero,0(v0)
a08057cc:	24020001 	li	v0,1
a08057d0:	afc20000 	sw	v0,0(s8)
a08057d4:	8fc20000 	lw	v0,0(s8)
a08057d8:	03c0e821 	move	sp,s8
a08057dc:	8fbe000c 	lw	s8,12(sp)
a08057e0:	27bd0010 	addiu	sp,sp,16
a08057e4:	03e00008 	jr	ra
a08057e8:	00000000 	nop

a08057ec <_puts>:
a08057ec:	27bdfff0 	addiu	sp,sp,-16
a08057f0:	afbe000c 	sw	s8,12(sp)
a08057f4:	03a0f021 	move	s8,sp
a08057f8:	afc40010 	sw	a0,16(s8)
a08057fc:	afc50014 	sw	a1,20(s8)
a0805800:	afc60018 	sw	a2,24(s8)
a0805804:	8fc20018 	lw	v0,24(s8)
a0805808:	8c440008 	lw	a0,8(v0)
a080580c:	8fc20018 	lw	v0,24(s8)
a0805810:	8c420000 	lw	v0,0(v0)
a0805814:	00401821 	move	v1,v0
a0805818:	8fc20018 	lw	v0,24(s8)
a080581c:	8c420004 	lw	v0,4(v0)
a0805820:	00621023 	subu	v0,v1,v0
a0805824:	00821021 	addu	v0,a0,v0
a0805828:	2443ffff 	addiu	v1,v0,-1
a080582c:	8fc20014 	lw	v0,20(s8)
a0805830:	0062102b 	sltu	v0,v1,v0
a0805834:	1040000c 	beqz	v0,a0805868 <_puts+0x7c>
a0805838:	00000000 	nop
a080583c:	8fc20018 	lw	v0,24(s8)
a0805840:	8c440008 	lw	a0,8(v0)
a0805844:	8fc20018 	lw	v0,24(s8)
a0805848:	8c420000 	lw	v0,0(v0)
a080584c:	00401821 	move	v1,v0
a0805850:	8fc20018 	lw	v0,24(s8)
a0805854:	8c420004 	lw	v0,4(v0)
a0805858:	00621023 	subu	v0,v1,v0
a080585c:	00821021 	addu	v0,a0,v0
a0805860:	2442ffff 	addiu	v0,v0,-1
a0805864:	afc20014 	sw	v0,20(s8)
a0805868:	afc00000 	sw	zero,0(s8)
a080586c:	0820162a 	j	a08058a8 <_puts+0xbc>
a0805870:	00000000 	nop
a0805874:	8fc20018 	lw	v0,24(s8)
a0805878:	8c440004 	lw	a0,4(v0)
a080587c:	8fc30010 	lw	v1,16(s8)
a0805880:	8fc20000 	lw	v0,0(s8)
a0805884:	00621021 	addu	v0,v1,v0
a0805888:	80420000 	lb	v0,0(v0)
a080588c:	a0820000 	sb	v0,0(a0)
a0805890:	24830001 	addiu	v1,a0,1
a0805894:	8fc20018 	lw	v0,24(s8)
a0805898:	ac430004 	sw	v1,4(v0)
a080589c:	8fc20000 	lw	v0,0(s8)
a08058a0:	24420001 	addiu	v0,v0,1
a08058a4:	afc20000 	sw	v0,0(s8)
a08058a8:	8fc20000 	lw	v0,0(s8)
a08058ac:	8fc30014 	lw	v1,20(s8)
a08058b0:	0043102b 	sltu	v0,v0,v1
a08058b4:	1440ffef 	bnez	v0,a0805874 <_puts+0x88>
a08058b8:	00000000 	nop
a08058bc:	8fc20018 	lw	v0,24(s8)
a08058c0:	8c420004 	lw	v0,4(v0)
a08058c4:	a0400000 	sb	zero,0(v0)
a08058c8:	8fc20014 	lw	v0,20(s8)
a08058cc:	03c0e821 	move	sp,s8
a08058d0:	8fbe000c 	lw	s8,12(sp)
a08058d4:	27bd0010 	addiu	sp,sp,16
a08058d8:	03e00008 	jr	ra
a08058dc:	00000000 	nop

a08058e0 <mini_vsnprintf>:
a08058e0:	27bdffa8 	addiu	sp,sp,-88
a08058e4:	afbf0054 	sw	ra,84(sp)
a08058e8:	afbe0050 	sw	s8,80(sp)
a08058ec:	03a0f021 	move	s8,sp
a08058f0:	afc40058 	sw	a0,88(s8)
a08058f4:	afc5005c 	sw	a1,92(s8)
a08058f8:	afc60060 	sw	a2,96(s8)
a08058fc:	afc70064 	sw	a3,100(s8)
a0805900:	8fc20058 	lw	v0,88(s8)
a0805904:	afc20024 	sw	v0,36(s8)
a0805908:	8fc20058 	lw	v0,88(s8)
a080590c:	afc20028 	sw	v0,40(s8)
a0805910:	8fc2005c 	lw	v0,92(s8)
a0805914:	afc2002c 	sw	v0,44(s8)
a0805918:	08201704 	j	a0805c10 <mini_vsnprintf+0x330>
a080591c:	00000000 	nop
a0805920:	8fc20028 	lw	v0,40(s8)
a0805924:	00401821 	move	v1,v0
a0805928:	8fc20024 	lw	v0,36(s8)
a080592c:	00621023 	subu	v0,v1,v0
a0805930:	24420001 	addiu	v0,v0,1
a0805934:	00401821 	move	v1,v0
a0805938:	8fc2002c 	lw	v0,44(s8)
a080593c:	0062102b 	sltu	v0,v1,v0
a0805940:	104000be 	beqz	v0,a0805c3c <mini_vsnprintf+0x35c>
a0805944:	00000000 	nop
a0805948:	83c30021 	lb	v1,33(s8)
a080594c:	24020025 	li	v0,37
a0805950:	10620009 	beq	v1,v0,a0805978 <mini_vsnprintf+0x98>
a0805954:	00000000 	nop
a0805958:	83c20021 	lb	v0,33(s8)
a080595c:	27c30024 	addiu	v1,s8,36
a0805960:	00402021 	move	a0,v0
a0805964:	00602821 	move	a1,v1
a0805968:	0c2015d2 	jal	a0805748 <_putc>
a080596c:	00000000 	nop
a0805970:	08201704 	j	a0805c10 <mini_vsnprintf+0x330>
a0805974:	00000000 	nop
a0805978:	a3c00020 	sb	zero,32(s8)
a080597c:	8fc20060 	lw	v0,96(s8)
a0805980:	90420000 	lbu	v0,0(v0)
a0805984:	a3c20021 	sb	v0,33(s8)
a0805988:	8fc20060 	lw	v0,96(s8)
a080598c:	24420001 	addiu	v0,v0,1
a0805990:	afc20060 	sw	v0,96(s8)
a0805994:	83c30021 	lb	v1,33(s8)
a0805998:	24020030 	li	v0,48
a080599c:	1462001c 	bne	v1,v0,a0805a10 <mini_vsnprintf+0x130>
a08059a0:	00000000 	nop
a08059a4:	8fc20060 	lw	v0,96(s8)
a08059a8:	90420000 	lbu	v0,0(v0)
a08059ac:	a3c20021 	sb	v0,33(s8)
a08059b0:	8fc20060 	lw	v0,96(s8)
a08059b4:	24420001 	addiu	v0,v0,1
a08059b8:	afc20060 	sw	v0,96(s8)
a08059bc:	83c20021 	lb	v0,33(s8)
a08059c0:	1040009e 	beqz	v0,a0805c3c <mini_vsnprintf+0x35c>
a08059c4:	00000000 	nop
a08059c8:	83c20021 	lb	v0,33(s8)
a08059cc:	28420030 	slti	v0,v0,48
a08059d0:	14400009 	bnez	v0,a08059f8 <mini_vsnprintf+0x118>
a08059d4:	00000000 	nop
a08059d8:	83c20021 	lb	v0,33(s8)
a08059dc:	2842003a 	slti	v0,v0,58
a08059e0:	10400005 	beqz	v0,a08059f8 <mini_vsnprintf+0x118>
a08059e4:	00000000 	nop
a08059e8:	93c20021 	lbu	v0,33(s8)
a08059ec:	2442ffd0 	addiu	v0,v0,-48
a08059f0:	304200ff 	andi	v0,v0,0xff
a08059f4:	a3c20020 	sb	v0,32(s8)
a08059f8:	8fc20060 	lw	v0,96(s8)
a08059fc:	90420000 	lbu	v0,0(v0)
a0805a00:	a3c20021 	sb	v0,33(s8)
a0805a04:	8fc20060 	lw	v0,96(s8)
a0805a08:	24420001 	addiu	v0,v0,1
a0805a0c:	afc20060 	sw	v0,96(s8)
a0805a10:	83c20021 	lb	v0,33(s8)
a0805a14:	afc20048 	sw	v0,72(s8)
a0805a18:	24020064 	li	v0,100
a0805a1c:	8fc30048 	lw	v1,72(s8)
a0805a20:	10620020 	beq	v1,v0,a0805aa4 <mini_vsnprintf+0x1c4>
a0805a24:	00000000 	nop
a0805a28:	8fc30048 	lw	v1,72(s8)
a0805a2c:	28620065 	slti	v0,v1,101
a0805a30:	1040000e 	beqz	v0,a0805a6c <mini_vsnprintf+0x18c>
a0805a34:	00000000 	nop
a0805a38:	24020058 	li	v0,88
a0805a3c:	8fc30048 	lw	v1,72(s8)
a0805a40:	10620033 	beq	v1,v0,a0805b10 <mini_vsnprintf+0x230>
a0805a44:	00000000 	nop
a0805a48:	24020063 	li	v0,99
a0805a4c:	8fc30048 	lw	v1,72(s8)
a0805a50:	1062004a 	beq	v1,v0,a0805b7c <mini_vsnprintf+0x29c>
a0805a54:	00000000 	nop
a0805a58:	8fc20048 	lw	v0,72(s8)
a0805a5c:	10400077 	beqz	v0,a0805c3c <mini_vsnprintf+0x35c>
a0805a60:	00000000 	nop
a0805a64:	082016fe 	j	a0805bf8 <mini_vsnprintf+0x318>
a0805a68:	00000000 	nop
a0805a6c:	24020075 	li	v0,117
a0805a70:	8fc30048 	lw	v1,72(s8)
a0805a74:	1062000b 	beq	v1,v0,a0805aa4 <mini_vsnprintf+0x1c4>
a0805a78:	00000000 	nop
a0805a7c:	24020078 	li	v0,120
a0805a80:	8fc30048 	lw	v1,72(s8)
a0805a84:	10620022 	beq	v1,v0,a0805b10 <mini_vsnprintf+0x230>
a0805a88:	00000000 	nop
a0805a8c:	24020073 	li	v0,115
a0805a90:	8fc30048 	lw	v1,72(s8)
a0805a94:	10620047 	beq	v1,v0,a0805bb4 <mini_vsnprintf+0x2d4>
a0805a98:	00000000 	nop
a0805a9c:	082016fe 	j	a0805bf8 <mini_vsnprintf+0x318>
a0805aa0:	00000000 	nop
a0805aa4:	8fc30064 	lw	v1,100(s8)
a0805aa8:	24620004 	addiu	v0,v1,4
a0805aac:	afc20064 	sw	v0,100(s8)
a0805ab0:	00601021 	move	v0,v1
a0805ab4:	8c420000 	lw	v0,0(v0)
a0805ab8:	00402021 	move	a0,v0
a0805abc:	83c20021 	lb	v0,33(s8)
a0805ac0:	38420075 	xori	v0,v0,0x75
a0805ac4:	2c470001 	sltiu	a3,v0,1
a0805ac8:	83c30020 	lb	v1,32(s8)
a0805acc:	27c20030 	addiu	v0,s8,48
a0805ad0:	afa20010 	sw	v0,16(sp)
a0805ad4:	afa30014 	sw	v1,20(sp)
a0805ad8:	2405000a 	li	a1,10
a0805adc:	00003021 	move	a2,zero
a0805ae0:	0c201532 	jal	a08054c8 <mini_itoa>
a0805ae4:	00000000 	nop
a0805ae8:	afc20018 	sw	v0,24(s8)
a0805aec:	27c20030 	addiu	v0,s8,48
a0805af0:	27c30024 	addiu	v1,s8,36
a0805af4:	00402021 	move	a0,v0
a0805af8:	8fc50018 	lw	a1,24(s8)
a0805afc:	00603021 	move	a2,v1
a0805b00:	0c2015fb 	jal	a08057ec <_puts>
a0805b04:	00000000 	nop
a0805b08:	08201704 	j	a0805c10 <mini_vsnprintf+0x330>
a0805b0c:	00000000 	nop
a0805b10:	8fc30064 	lw	v1,100(s8)
a0805b14:	24620004 	addiu	v0,v1,4
a0805b18:	afc20064 	sw	v0,100(s8)
a0805b1c:	00601021 	move	v0,v1
a0805b20:	8c420000 	lw	v0,0(v0)
a0805b24:	00402021 	move	a0,v0
a0805b28:	83c20021 	lb	v0,33(s8)
a0805b2c:	38420058 	xori	v0,v0,0x58
a0805b30:	2c460001 	sltiu	a2,v0,1
a0805b34:	83c30020 	lb	v1,32(s8)
a0805b38:	27c20030 	addiu	v0,s8,48
a0805b3c:	afa20010 	sw	v0,16(sp)
a0805b40:	afa30014 	sw	v1,20(sp)
a0805b44:	24050010 	li	a1,16
a0805b48:	24070001 	li	a3,1
a0805b4c:	0c201532 	jal	a08054c8 <mini_itoa>
a0805b50:	00000000 	nop
a0805b54:	afc20018 	sw	v0,24(s8)
a0805b58:	27c20030 	addiu	v0,s8,48
a0805b5c:	27c30024 	addiu	v1,s8,36
a0805b60:	00402021 	move	a0,v0
a0805b64:	8fc50018 	lw	a1,24(s8)
a0805b68:	00603021 	move	a2,v1
a0805b6c:	0c2015fb 	jal	a08057ec <_puts>
a0805b70:	00000000 	nop
a0805b74:	08201704 	j	a0805c10 <mini_vsnprintf+0x330>
a0805b78:	00000000 	nop
a0805b7c:	8fc30064 	lw	v1,100(s8)
a0805b80:	24620004 	addiu	v0,v1,4
a0805b84:	afc20064 	sw	v0,100(s8)
a0805b88:	00601021 	move	v0,v1
a0805b8c:	8c420000 	lw	v0,0(v0)
a0805b90:	00021600 	sll	v0,v0,0x18
a0805b94:	00021603 	sra	v0,v0,0x18
a0805b98:	27c30024 	addiu	v1,s8,36
a0805b9c:	00402021 	move	a0,v0
a0805ba0:	00602821 	move	a1,v1
a0805ba4:	0c2015d2 	jal	a0805748 <_putc>
a0805ba8:	00000000 	nop
a0805bac:	08201704 	j	a0805c10 <mini_vsnprintf+0x330>
a0805bb0:	00000000 	nop
a0805bb4:	8fc30064 	lw	v1,100(s8)
a0805bb8:	24620004 	addiu	v0,v1,4
a0805bbc:	afc20064 	sw	v0,100(s8)
a0805bc0:	00601021 	move	v0,v1
a0805bc4:	8c420000 	lw	v0,0(v0)
a0805bc8:	afc2001c 	sw	v0,28(s8)
a0805bcc:	8fc4001c 	lw	a0,28(s8)
a0805bd0:	0c20151c 	jal	a0805470 <mini_strlen>
a0805bd4:	00000000 	nop
a0805bd8:	27c30024 	addiu	v1,s8,36
a0805bdc:	8fc4001c 	lw	a0,28(s8)
a0805be0:	00402821 	move	a1,v0
a0805be4:	00603021 	move	a2,v1
a0805be8:	0c2015fb 	jal	a08057ec <_puts>
a0805bec:	00000000 	nop
a0805bf0:	08201704 	j	a0805c10 <mini_vsnprintf+0x330>
a0805bf4:	00000000 	nop
a0805bf8:	83c20021 	lb	v0,33(s8)
a0805bfc:	27c30024 	addiu	v1,s8,36
a0805c00:	00402021 	move	a0,v0
a0805c04:	00602821 	move	a1,v1
a0805c08:	0c2015d2 	jal	a0805748 <_putc>
a0805c0c:	00000000 	nop
a0805c10:	8fc20060 	lw	v0,96(s8)
a0805c14:	90420000 	lbu	v0,0(v0)
a0805c18:	a3c20021 	sb	v0,33(s8)
a0805c1c:	83c20021 	lb	v0,33(s8)
a0805c20:	0002102b 	sltu	v0,zero,v0
a0805c24:	304300ff 	andi	v1,v0,0xff
a0805c28:	8fc20060 	lw	v0,96(s8)
a0805c2c:	24420001 	addiu	v0,v0,1
a0805c30:	afc20060 	sw	v0,96(s8)
a0805c34:	1460ff3a 	bnez	v1,a0805920 <mini_vsnprintf+0x40>
a0805c38:	00000000 	nop
a0805c3c:	8fc20028 	lw	v0,40(s8)
a0805c40:	00401821 	move	v1,v0
a0805c44:	8fc20024 	lw	v0,36(s8)
a0805c48:	00621023 	subu	v0,v1,v0
a0805c4c:	03c0e821 	move	sp,s8
a0805c50:	8fbf0054 	lw	ra,84(sp)
a0805c54:	8fbe0050 	lw	s8,80(sp)
a0805c58:	27bd0058 	addiu	sp,sp,88
a0805c5c:	03e00008 	jr	ra
a0805c60:	00000000 	nop

a0805c64 <printk>:
a0805c64:	27bdfee0 	addiu	sp,sp,-288
a0805c68:	afbf011c 	sw	ra,284(sp)
a0805c6c:	afbe0118 	sw	s8,280(sp)
a0805c70:	03a0f021 	move	s8,sp
a0805c74:	afc50124 	sw	a1,292(s8)
a0805c78:	afc60128 	sw	a2,296(s8)
a0805c7c:	afc7012c 	sw	a3,300(s8)
a0805c80:	afc40120 	sw	a0,288(s8)
a0805c84:	27c20124 	addiu	v0,s8,292
a0805c88:	afc20014 	sw	v0,20(s8)
a0805c8c:	8fc30014 	lw	v1,20(s8)
a0805c90:	27c20018 	addiu	v0,s8,24
a0805c94:	00402021 	move	a0,v0
a0805c98:	24050100 	li	a1,256
a0805c9c:	8fc60120 	lw	a2,288(s8)
a0805ca0:	00603821 	move	a3,v1
a0805ca4:	0c201638 	jal	a08058e0 <mini_vsnprintf>
a0805ca8:	00000000 	nop
a0805cac:	afc20010 	sw	v0,16(s8)
a0805cb0:	8fc30010 	lw	v1,16(s8)
a0805cb4:	27c20010 	addiu	v0,s8,16
a0805cb8:	00431021 	addu	v0,v0,v1
a0805cbc:	a0400008 	sb	zero,8(v0)
a0805cc0:	27c20018 	addiu	v0,s8,24
a0805cc4:	00402021 	move	a0,v0
a0805cc8:	0c2002d8 	jal	a0800b60 <port_write>
a0805ccc:	00000000 	nop
a0805cd0:	8fc20010 	lw	v0,16(s8)
a0805cd4:	03c0e821 	move	sp,s8
a0805cd8:	8fbf011c 	lw	ra,284(sp)
a0805cdc:	8fbe0118 	lw	s8,280(sp)
a0805ce0:	27bd0120 	addiu	sp,sp,288
a0805ce4:	03e00008 	jr	ra
a0805ce8:	00000000 	nop

a0805cec <printf>:
a0805cec:	27bdfee0 	addiu	sp,sp,-288
a0805cf0:	afbf011c 	sw	ra,284(sp)
a0805cf4:	afbe0118 	sw	s8,280(sp)
a0805cf8:	03a0f021 	move	s8,sp
a0805cfc:	afc50124 	sw	a1,292(s8)
a0805d00:	afc60128 	sw	a2,296(s8)
a0805d04:	afc7012c 	sw	a3,300(s8)
a0805d08:	afc40120 	sw	a0,288(s8)
a0805d0c:	27c20124 	addiu	v0,s8,292
a0805d10:	afc20014 	sw	v0,20(s8)
a0805d14:	8fc30014 	lw	v1,20(s8)
a0805d18:	27c20018 	addiu	v0,s8,24
a0805d1c:	00402021 	move	a0,v0
a0805d20:	24050100 	li	a1,256
a0805d24:	8fc60120 	lw	a2,288(s8)
a0805d28:	00603821 	move	a3,v1
a0805d2c:	0c201638 	jal	a08058e0 <mini_vsnprintf>
a0805d30:	00000000 	nop
a0805d34:	afc20010 	sw	v0,16(s8)
a0805d38:	8fc30010 	lw	v1,16(s8)
a0805d3c:	27c20010 	addiu	v0,s8,16
a0805d40:	00431021 	addu	v0,v0,v1
a0805d44:	a0400008 	sb	zero,8(v0)
a0805d48:	27c20018 	addiu	v0,s8,24
a0805d4c:	00402021 	move	a0,v0
a0805d50:	0c2011d1 	jal	a0804744 <sys_write>
a0805d54:	00000000 	nop
a0805d58:	8fc20010 	lw	v0,16(s8)
a0805d5c:	03c0e821 	move	sp,s8
a0805d60:	8fbf011c 	lw	ra,284(sp)
a0805d64:	8fbe0118 	lw	s8,280(sp)
a0805d68:	27bd0120 	addiu	sp,sp,288
a0805d6c:	03e00008 	jr	ra
a0805d70:	00000000 	nop

a0805d74 <my_printf>:
a0805d74:	27bdfee0 	addiu	sp,sp,-288
a0805d78:	afbf011c 	sw	ra,284(sp)
a0805d7c:	afbe0118 	sw	s8,280(sp)
a0805d80:	03a0f021 	move	s8,sp
a0805d84:	afc50124 	sw	a1,292(s8)
a0805d88:	afc60128 	sw	a2,296(s8)
a0805d8c:	afc7012c 	sw	a3,300(s8)
a0805d90:	afc40120 	sw	a0,288(s8)
a0805d94:	27c20124 	addiu	v0,s8,292
a0805d98:	afc20014 	sw	v0,20(s8)
a0805d9c:	8fc30014 	lw	v1,20(s8)
a0805da0:	27c20018 	addiu	v0,s8,24
a0805da4:	00402021 	move	a0,v0
a0805da8:	24050100 	li	a1,256
a0805dac:	8fc60120 	lw	a2,288(s8)
a0805db0:	00603821 	move	a3,v1
a0805db4:	0c201638 	jal	a08058e0 <mini_vsnprintf>
a0805db8:	00000000 	nop
a0805dbc:	afc20010 	sw	v0,16(s8)
a0805dc0:	8fc30010 	lw	v1,16(s8)
a0805dc4:	27c20010 	addiu	v0,s8,16
a0805dc8:	00431021 	addu	v0,v0,v1
a0805dcc:	a0400008 	sb	zero,8(v0)
a0805dd0:	27c20018 	addiu	v0,s8,24
a0805dd4:	00402021 	move	a0,v0
a0805dd8:	0c20045c 	jal	a0801170 <screen_write>
a0805ddc:	00000000 	nop
a0805de0:	8fc20010 	lw	v0,16(s8)
a0805de4:	03c0e821 	move	sp,s8
a0805de8:	8fbf011c 	lw	ra,284(sp)
a0805dec:	8fbe0118 	lw	s8,280(sp)
a0805df0:	27bd0120 	addiu	sp,sp,288
a0805df4:	03e00008 	jr	ra
a0805df8:	00000000 	nop
a0805dfc:	00000000 	nop

a0805e00 <disable_interrupt>:
a0805e00:	27bdffe0 	addiu	sp,sp,-32
a0805e04:	afbf001c 	sw	ra,28(sp)
a0805e08:	afbe0018 	sw	s8,24(sp)
a0805e0c:	03a0f021 	move	s8,sp
a0805e10:	0c2000d5 	jal	a0800354 <GET_CP0_STATUS>
a0805e14:	00000000 	nop
a0805e18:	afc20010 	sw	v0,16(s8)
a0805e1c:	8fc30010 	lw	v1,16(s8)
a0805e20:	2402fffe 	li	v0,-2
a0805e24:	00621024 	and	v0,v1,v0
a0805e28:	afc20010 	sw	v0,16(s8)
a0805e2c:	8fc40010 	lw	a0,16(s8)
a0805e30:	0c2000d8 	jal	a0800360 <SET_CP0_STATUS>
a0805e34:	00000000 	nop
a0805e38:	03c0e821 	move	sp,s8
a0805e3c:	8fbf001c 	lw	ra,28(sp)
a0805e40:	8fbe0018 	lw	s8,24(sp)
a0805e44:	27bd0020 	addiu	sp,sp,32
a0805e48:	03e00008 	jr	ra
a0805e4c:	00000000 	nop

a0805e50 <enable_interrupt>:
a0805e50:	27bdffe0 	addiu	sp,sp,-32
a0805e54:	afbf001c 	sw	ra,28(sp)
a0805e58:	afbe0018 	sw	s8,24(sp)
a0805e5c:	03a0f021 	move	s8,sp
a0805e60:	0c2000d5 	jal	a0800354 <GET_CP0_STATUS>
a0805e64:	00000000 	nop
a0805e68:	afc20010 	sw	v0,16(s8)
a0805e6c:	8fc20010 	lw	v0,16(s8)
a0805e70:	34420001 	ori	v0,v0,0x1
a0805e74:	afc20010 	sw	v0,16(s8)
a0805e78:	8fc40010 	lw	a0,16(s8)
a0805e7c:	0c2000d8 	jal	a0800360 <SET_CP0_STATUS>
a0805e80:	00000000 	nop
a0805e84:	03c0e821 	move	sp,s8
a0805e88:	8fbf001c 	lw	ra,28(sp)
a0805e8c:	8fbe0018 	lw	s8,24(sp)
a0805e90:	27bd0020 	addiu	sp,sp,32
a0805e94:	03e00008 	jr	ra
a0805e98:	00000000 	nop

a0805e9c <read_uart_ch>:
a0805e9c:	27bdffe8 	addiu	sp,sp,-24
a0805ea0:	afbe0014 	sw	s8,20(sp)
a0805ea4:	03a0f021 	move	s8,sp
a0805ea8:	a3c00008 	sb	zero,8(s8)
a0805eac:	3c02bfe4 	lui	v0,0xbfe4
a0805eb0:	34428000 	ori	v0,v0,0x8000
a0805eb4:	afc20004 	sw	v0,4(s8)
a0805eb8:	3c02bfe4 	lui	v0,0xbfe4
a0805ebc:	34428005 	ori	v0,v0,0x8005
a0805ec0:	afc20000 	sw	v0,0(s8)
a0805ec4:	082017b6 	j	a0805ed8 <read_uart_ch+0x3c>
a0805ec8:	00000000 	nop
a0805ecc:	8fc20004 	lw	v0,4(s8)
a0805ed0:	90420000 	lbu	v0,0(v0)
a0805ed4:	a3c20008 	sb	v0,8(s8)
a0805ed8:	8fc20000 	lw	v0,0(s8)
a0805edc:	90420000 	lbu	v0,0(v0)
a0805ee0:	30420001 	andi	v0,v0,0x1
a0805ee4:	304200ff 	andi	v0,v0,0xff
a0805ee8:	1440fff8 	bnez	v0,a0805ecc <read_uart_ch+0x30>
a0805eec:	00000000 	nop
a0805ef0:	83c20008 	lb	v0,8(s8)
a0805ef4:	03c0e821 	move	sp,s8
a0805ef8:	8fbe0014 	lw	s8,20(sp)
a0805efc:	27bd0018 	addiu	sp,sp,24
a0805f00:	03e00008 	jr	ra
a0805f04:	00000000 	nop

a0805f08 <do_cmd>:
a0805f08:	27bdffd8 	addiu	sp,sp,-40
a0805f0c:	afbf0024 	sw	ra,36(sp)
a0805f10:	afbe0020 	sw	s8,32(sp)
a0805f14:	03a0f021 	move	s8,sp
a0805f18:	afc40028 	sw	a0,40(s8)
a0805f1c:	afc5002c 	sw	a1,44(s8)
a0805f20:	afc60030 	sw	a2,48(s8)
a0805f24:	8fc2002c 	lw	v0,44(s8)
a0805f28:	afc2001c 	sw	v0,28(s8)
a0805f2c:	24020001 	li	v0,1
a0805f30:	8fc3001c 	lw	v1,28(s8)
a0805f34:	10620007 	beq	v1,v0,a0805f54 <do_cmd+0x4c>
a0805f38:	00000000 	nop
a0805f3c:	24020002 	li	v0,2
a0805f40:	8fc3001c 	lw	v1,28(s8)
a0805f44:	1062002a 	beq	v1,v0,a0805ff0 <do_cmd+0xe8>
a0805f48:	00000000 	nop
a0805f4c:	0820183d 	j	a08060f4 <do_cmd+0x1ec>
a0805f50:	00000000 	nop
a0805f54:	8fc40028 	lw	a0,40(s8)
a0805f58:	3c02a080 	lui	v0,0xa080
a0805f5c:	24456da0 	addiu	a1,v0,28064
a0805f60:	0c2013b8 	jal	a0804ee0 <strcmp>
a0805f64:	00000000 	nop
a0805f68:	14400005 	bnez	v0,a0805f80 <do_cmd+0x78>
a0805f6c:	00000000 	nop
a0805f70:	0c2011f3 	jal	a08047cc <sys_ps>
a0805f74:	00000000 	nop
a0805f78:	08201841 	j	a0806104 <do_cmd+0x1fc>
a0805f7c:	00000000 	nop
a0805f80:	8fc40028 	lw	a0,40(s8)
a0805f84:	3c02a080 	lui	v0,0xa080
a0805f88:	24456da4 	addiu	a1,v0,28068
a0805f8c:	0c2013b8 	jal	a0804ee0 <strcmp>
a0805f90:	00000000 	nop
a0805f94:	14400005 	bnez	v0,a0805fac <do_cmd+0xa4>
a0805f98:	00000000 	nop
a0805f9c:	0c201203 	jal	a080480c <sys_clear>
a0805fa0:	00000000 	nop
a0805fa4:	08201841 	j	a0806104 <do_cmd+0x1fc>
a0805fa8:	00000000 	nop
a0805fac:	8fc40028 	lw	a0,40(s8)
a0805fb0:	3c02a080 	lui	v0,0xa080
a0805fb4:	24456dac 	addiu	a1,v0,28076
a0805fb8:	0c2013b8 	jal	a0804ee0 <strcmp>
a0805fbc:	00000000 	nop
a0805fc0:	14400005 	bnez	v0,a0805fd8 <do_cmd+0xd0>
a0805fc4:	00000000 	nop
a0805fc8:	0c201236 	jal	a08048d8 <sys_exit>
a0805fcc:	00000000 	nop
a0805fd0:	08201841 	j	a0806104 <do_cmd+0x1fc>
a0805fd4:	00000000 	nop
a0805fd8:	3c02a080 	lui	v0,0xa080
a0805fdc:	24446db4 	addiu	a0,v0,28084
a0805fe0:	0c20173b 	jal	a0805cec <printf>
a0805fe4:	00000000 	nop
a0805fe8:	08201841 	j	a0806104 <do_cmd+0x1fc>
a0805fec:	00000000 	nop
a0805ff0:	8fc40028 	lw	a0,40(s8)
a0805ff4:	3c02a080 	lui	v0,0xa080
a0805ff8:	24456da4 	addiu	a1,v0,28068
a0805ffc:	0c2013b8 	jal	a0804ee0 <strcmp>
a0806000:	00000000 	nop
a0806004:	1440000d 	bnez	v0,a080603c <do_cmd+0x134>
a0806008:	00000000 	nop
a080600c:	8fc20030 	lw	v0,48(s8)
a0806010:	00402021 	move	a0,v0
a0806014:	3c02a080 	lui	v0,0xa080
a0806018:	24456dc8 	addiu	a1,v0,28104
a080601c:	0c2013b8 	jal	a0804ee0 <strcmp>
a0806020:	00000000 	nop
a0806024:	14400005 	bnez	v0,a080603c <do_cmd+0x134>
a0806028:	00000000 	nop
a080602c:	0c201257 	jal	a080495c <sys_clear_all>
a0806030:	00000000 	nop
a0806034:	08201841 	j	a0806104 <do_cmd+0x1fc>
a0806038:	00000000 	nop
a080603c:	8fc40028 	lw	a0,40(s8)
a0806040:	3c02a080 	lui	v0,0xa080
a0806044:	24456dcc 	addiu	a1,v0,28108
a0806048:	0c2013b8 	jal	a0804ee0 <strcmp>
a080604c:	00000000 	nop
a0806050:	14400011 	bnez	v0,a0806098 <do_cmd+0x190>
a0806054:	00000000 	nop
a0806058:	8fc20030 	lw	v0,48(s8)
a080605c:	00402021 	move	a0,v0
a0806060:	0c20143b 	jal	a08050ec <atoi>
a0806064:	00000000 	nop
a0806068:	afc20014 	sw	v0,20(s8)
a080606c:	8fc20014 	lw	v0,20(s8)
a0806070:	3c03a080 	lui	v1,0xa080
a0806074:	00022080 	sll	a0,v0,0x2
a0806078:	24626f88 	addiu	v0,v1,28552
a080607c:	00821021 	addu	v0,a0,v0
a0806080:	8c420000 	lw	v0,0(v0)
a0806084:	00402021 	move	a0,v0
a0806088:	0c201213 	jal	a080484c <sys_spawn>
a080608c:	00000000 	nop
a0806090:	08201841 	j	a0806104 <do_cmd+0x1fc>
a0806094:	00000000 	nop
a0806098:	8fc40028 	lw	a0,40(s8)
a080609c:	3c02a080 	lui	v0,0xa080
a08060a0:	24456dd4 	addiu	a1,v0,28116
a08060a4:	0c2013b8 	jal	a0804ee0 <strcmp>
a08060a8:	00000000 	nop
a08060ac:	1440000b 	bnez	v0,a08060dc <do_cmd+0x1d4>
a08060b0:	00000000 	nop
a08060b4:	8fc20030 	lw	v0,48(s8)
a08060b8:	00402021 	move	a0,v0
a08060bc:	0c20143b 	jal	a08050ec <atoi>
a08060c0:	00000000 	nop
a08060c4:	afc20010 	sw	v0,16(s8)
a08060c8:	8fc40010 	lw	a0,16(s8)
a08060cc:	0c201225 	jal	a0804894 <sys_kill>
a08060d0:	00000000 	nop
a08060d4:	08201841 	j	a0806104 <do_cmd+0x1fc>
a08060d8:	00000000 	nop
a08060dc:	3c02a080 	lui	v0,0xa080
a08060e0:	24446db4 	addiu	a0,v0,28084
a08060e4:	0c20173b 	jal	a0805cec <printf>
a08060e8:	00000000 	nop
a08060ec:	08201841 	j	a0806104 <do_cmd+0x1fc>
a08060f0:	00000000 	nop
a08060f4:	3c02a080 	lui	v0,0xa080
a08060f8:	24446ddc 	addiu	a0,v0,28124
a08060fc:	0c20173b 	jal	a0805cec <printf>
a0806100:	00000000 	nop
a0806104:	03c0e821 	move	sp,s8
a0806108:	8fbf0024 	lw	ra,36(sp)
a080610c:	8fbe0020 	lw	s8,32(sp)
a0806110:	27bd0028 	addiu	sp,sp,40
a0806114:	03e00008 	jr	ra
a0806118:	00000000 	nop

a080611c <analysis_cmd>:
a080611c:	27bdffe8 	addiu	sp,sp,-24
a0806120:	afbe0014 	sw	s8,20(sp)
a0806124:	03a0f021 	move	s8,sp
a0806128:	afc40018 	sw	a0,24(s8)
a080612c:	afc5001c 	sw	a1,28(s8)
a0806130:	afc60020 	sw	a2,32(s8)
a0806134:	afc00008 	sw	zero,8(s8)
a0806138:	afc00004 	sw	zero,4(s8)
a080613c:	afc00000 	sw	zero,0(s8)
a0806140:	08201855 	j	a0806154 <analysis_cmd+0x38>
a0806144:	00000000 	nop
a0806148:	8fc20008 	lw	v0,8(s8)
a080614c:	24420001 	addiu	v0,v0,1
a0806150:	afc20008 	sw	v0,8(s8)
a0806154:	8fc30008 	lw	v1,8(s8)
a0806158:	8fc20018 	lw	v0,24(s8)
a080615c:	00431021 	addu	v0,v0,v1
a0806160:	80430000 	lb	v1,0(v0)
a0806164:	24020020 	li	v0,32
a0806168:	10620007 	beq	v1,v0,a0806188 <analysis_cmd+0x6c>
a080616c:	00000000 	nop
a0806170:	8fc30008 	lw	v1,8(s8)
a0806174:	8fc20018 	lw	v0,24(s8)
a0806178:	00431021 	addu	v0,v0,v1
a080617c:	80420000 	lb	v0,0(v0)
a0806180:	1440fff1 	bnez	v0,a0806148 <analysis_cmd+0x2c>
a0806184:	00000000 	nop
a0806188:	8fc30008 	lw	v1,8(s8)
a080618c:	8fc20018 	lw	v0,24(s8)
a0806190:	00431021 	addu	v0,v0,v1
a0806194:	80430000 	lb	v1,0(v0)
a0806198:	24020020 	li	v0,32
a080619c:	14620008 	bne	v1,v0,a08061c0 <analysis_cmd+0xa4>
a08061a0:	00000000 	nop
a08061a4:	8fc30008 	lw	v1,8(s8)
a08061a8:	8fc20018 	lw	v0,24(s8)
a08061ac:	00431021 	addu	v0,v0,v1
a08061b0:	a0400000 	sb	zero,0(v0)
a08061b4:	8fc20008 	lw	v0,8(s8)
a08061b8:	24420001 	addiu	v0,v0,1
a08061bc:	afc20008 	sw	v0,8(s8)
a08061c0:	8fc3001c 	lw	v1,28(s8)
a08061c4:	24020001 	li	v0,1
a08061c8:	ac620000 	sw	v0,0(v1)
a08061cc:	082018a4 	j	a0806290 <analysis_cmd+0x174>
a08061d0:	00000000 	nop
a08061d4:	afc00000 	sw	zero,0(s8)
a08061d8:	8fc20004 	lw	v0,4(s8)
a08061dc:	00021880 	sll	v1,v0,0x2
a08061e0:	00031080 	sll	v0,v1,0x2
a08061e4:	00621821 	addu	v1,v1,v0
a08061e8:	8fc20020 	lw	v0,32(s8)
a08061ec:	00432821 	addu	a1,v0,v1
a08061f0:	8fc40000 	lw	a0,0(s8)
a08061f4:	8fc30008 	lw	v1,8(s8)
a08061f8:	8fc20018 	lw	v0,24(s8)
a08061fc:	00431021 	addu	v0,v0,v1
a0806200:	80430000 	lb	v1,0(v0)
a0806204:	00a41021 	addu	v0,a1,a0
a0806208:	a0430000 	sb	v1,0(v0)
a080620c:	8fc20000 	lw	v0,0(s8)
a0806210:	24420001 	addiu	v0,v0,1
a0806214:	afc20000 	sw	v0,0(s8)
a0806218:	8fc20008 	lw	v0,8(s8)
a080621c:	24420001 	addiu	v0,v0,1
a0806220:	afc20008 	sw	v0,8(s8)
a0806224:	8fc30008 	lw	v1,8(s8)
a0806228:	8fc20018 	lw	v0,24(s8)
a080622c:	00431021 	addu	v0,v0,v1
a0806230:	80430000 	lb	v1,0(v0)
a0806234:	24020020 	li	v0,32
a0806238:	1462ffe7 	bne	v1,v0,a08061d8 <analysis_cmd+0xbc>
a080623c:	00000000 	nop
a0806240:	8fc20004 	lw	v0,4(s8)
a0806244:	00021880 	sll	v1,v0,0x2
a0806248:	00031080 	sll	v0,v1,0x2
a080624c:	00621821 	addu	v1,v1,v0
a0806250:	8fc20020 	lw	v0,32(s8)
a0806254:	00431821 	addu	v1,v0,v1
a0806258:	8fc20000 	lw	v0,0(s8)
a080625c:	00621021 	addu	v0,v1,v0
a0806260:	a0400000 	sb	zero,0(v0)
a0806264:	8fc2001c 	lw	v0,28(s8)
a0806268:	8c420000 	lw	v0,0(v0)
a080626c:	24430001 	addiu	v1,v0,1
a0806270:	8fc2001c 	lw	v0,28(s8)
a0806274:	ac430000 	sw	v1,0(v0)
a0806278:	8fc20008 	lw	v0,8(s8)
a080627c:	24420001 	addiu	v0,v0,1
a0806280:	afc20008 	sw	v0,8(s8)
a0806284:	8fc20004 	lw	v0,4(s8)
a0806288:	24420001 	addiu	v0,v0,1
a080628c:	afc20004 	sw	v0,4(s8)
a0806290:	8fc30008 	lw	v1,8(s8)
a0806294:	8fc20018 	lw	v0,24(s8)
a0806298:	00431021 	addu	v0,v0,v1
a080629c:	80420000 	lb	v0,0(v0)
a08062a0:	1440ffcc 	bnez	v0,a08061d4 <analysis_cmd+0xb8>
a08062a4:	00000000 	nop
a08062a8:	03c0e821 	move	sp,s8
a08062ac:	8fbe0014 	lw	s8,20(sp)
a08062b0:	27bd0018 	addiu	sp,sp,24
a08062b4:	03e00008 	jr	ra
a08062b8:	00000000 	nop

a08062bc <test_shell>:
a08062bc:	27bdff00 	addiu	sp,sp,-256
a08062c0:	afbf00fc 	sw	ra,252(sp)
a08062c4:	afbe00f8 	sw	s8,248(sp)
a08062c8:	03a0f021 	move	s8,sp
a08062cc:	afc00014 	sw	zero,20(s8)
a08062d0:	00002021 	move	a0,zero
a08062d4:	2405000f 	li	a1,15
a08062d8:	0c20130d 	jal	a0804c34 <sys_move_cursor>
a08062dc:	00000000 	nop
a08062e0:	3c02a080 	lui	v0,0xa080
a08062e4:	24446df0 	addiu	a0,v0,28144
a08062e8:	0c20173b 	jal	a0805cec <printf>
a08062ec:	00000000 	nop
a08062f0:	3c02a080 	lui	v0,0xa080
a08062f4:	24446e44 	addiu	a0,v0,28228
a08062f8:	0c20173b 	jal	a0805cec <printf>
a08062fc:	00000000 	nop
a0806300:	0c201780 	jal	a0805e00 <disable_interrupt>
a0806304:	00000000 	nop
a0806308:	0c2017a7 	jal	a0805e9c <read_uart_ch>
a080630c:	00000000 	nop
a0806310:	a3c20010 	sb	v0,16(s8)
a0806314:	0c201794 	jal	a0805e50 <enable_interrupt>
a0806318:	00000000 	nop
a080631c:	83c20010 	lb	v0,16(s8)
a0806320:	1040fff7 	beqz	v0,a0806300 <test_shell+0x44>
a0806324:	00000000 	nop
a0806328:	83c30010 	lb	v1,16(s8)
a080632c:	2402000d 	li	v0,13
a0806330:	10620011 	beq	v1,v0,a0806378 <test_shell+0xbc>
a0806334:	00000000 	nop
a0806338:	8fc30014 	lw	v1,20(s8)
a080633c:	27c20010 	addiu	v0,s8,16
a0806340:	00431821 	addu	v1,v0,v1
a0806344:	93c20010 	lbu	v0,16(s8)
a0806348:	a0620008 	sb	v0,8(v1)
a080634c:	8fc20014 	lw	v0,20(s8)
a0806350:	24420001 	addiu	v0,v0,1
a0806354:	afc20014 	sw	v0,20(s8)
a0806358:	83c30010 	lb	v1,16(s8)
a080635c:	3c02a080 	lui	v0,0xa080
a0806360:	24446e54 	addiu	a0,v0,28244
a0806364:	00602821 	move	a1,v1
a0806368:	0c20173b 	jal	a0805cec <printf>
a080636c:	00000000 	nop
a0806370:	082018c0 	j	a0806300 <test_shell+0x44>
a0806374:	00000000 	nop
a0806378:	8fc30014 	lw	v1,20(s8)
a080637c:	27c20010 	addiu	v0,s8,16
a0806380:	00431821 	addu	v1,v0,v1
a0806384:	24020020 	li	v0,32
a0806388:	a0620008 	sb	v0,8(v1)
a080638c:	8fc20014 	lw	v0,20(s8)
a0806390:	24420001 	addiu	v0,v0,1
a0806394:	afc20014 	sw	v0,20(s8)
a0806398:	8fc30014 	lw	v1,20(s8)
a080639c:	27c20010 	addiu	v0,s8,16
a08063a0:	00431021 	addu	v0,v0,v1
a08063a4:	a0400008 	sb	zero,8(v0)
a08063a8:	27c20018 	addiu	v0,s8,24
a08063ac:	27c3002c 	addiu	v1,s8,44
a08063b0:	27c60030 	addiu	a2,s8,48
a08063b4:	00402021 	move	a0,v0
a08063b8:	00602821 	move	a1,v1
a08063bc:	0c201847 	jal	a080611c <analysis_cmd>
a08063c0:	00000000 	nop
a08063c4:	3c02a080 	lui	v0,0xa080
a08063c8:	24446e58 	addiu	a0,v0,28248
a08063cc:	0c20173b 	jal	a0805cec <printf>
a08063d0:	00000000 	nop
a08063d4:	8fc5002c 	lw	a1,44(s8)
a08063d8:	27c20018 	addiu	v0,s8,24
a08063dc:	27c30030 	addiu	v1,s8,48
a08063e0:	00402021 	move	a0,v0
a08063e4:	00603021 	move	a2,v1
a08063e8:	0c2017c2 	jal	a0805f08 <do_cmd>
a08063ec:	00000000 	nop
a08063f0:	afc00014 	sw	zero,20(s8)
a08063f4:	3c02a080 	lui	v0,0xa080
a08063f8:	24446e44 	addiu	a0,v0,28228
a08063fc:	0c20173b 	jal	a0805cec <printf>
a0806400:	00000000 	nop
a0806404:	082018c0 	j	a0806300 <test_shell+0x44>
a0806408:	00000000 	nop
a080640c:	00000000 	nop

a0806410 <drawing_task1>:
a0806410:	27bdffe0 	addiu	sp,sp,-32
a0806414:	afbf001c 	sw	ra,28(sp)
a0806418:	afbe0018 	sw	s8,24(sp)
a080641c:	03a0f021 	move	s8,sp
a0806420:	24020016 	li	v0,22
a0806424:	afc20014 	sw	v0,20(s8)
a0806428:	2402000a 	li	v0,10
a080642c:	afc20010 	sw	v0,16(s8)
a0806430:	2402003c 	li	v0,60
a0806434:	afc20014 	sw	v0,20(s8)
a0806438:	08201941 	j	a0806504 <drawing_task1+0xf4>
a080643c:	00000000 	nop
a0806440:	8fc40014 	lw	a0,20(s8)
a0806444:	8fc50010 	lw	a1,16(s8)
a0806448:	0c20130d 	jal	a0804c34 <sys_move_cursor>
a080644c:	00000000 	nop
a0806450:	3c02a080 	lui	v0,0xa080
a0806454:	24446e60 	addiu	a0,v0,28256
a0806458:	3c02a080 	lui	v0,0xa080
a080645c:	24456fb4 	addiu	a1,v0,28596
a0806460:	0c20173b 	jal	a0805cec <printf>
a0806464:	00000000 	nop
a0806468:	8fc20010 	lw	v0,16(s8)
a080646c:	24420001 	addiu	v0,v0,1
a0806470:	8fc40014 	lw	a0,20(s8)
a0806474:	00402821 	move	a1,v0
a0806478:	0c20130d 	jal	a0804c34 <sys_move_cursor>
a080647c:	00000000 	nop
a0806480:	3c02a080 	lui	v0,0xa080
a0806484:	24446e60 	addiu	a0,v0,28256
a0806488:	3c02a080 	lui	v0,0xa080
a080648c:	24456fc8 	addiu	a1,v0,28616
a0806490:	0c20173b 	jal	a0805cec <printf>
a0806494:	00000000 	nop
a0806498:	8fc20010 	lw	v0,16(s8)
a080649c:	24420002 	addiu	v0,v0,2
a08064a0:	8fc40014 	lw	a0,20(s8)
a08064a4:	00402821 	move	a1,v0
a08064a8:	0c20130d 	jal	a0804c34 <sys_move_cursor>
a08064ac:	00000000 	nop
a08064b0:	3c02a080 	lui	v0,0xa080
a08064b4:	24446e60 	addiu	a0,v0,28256
a08064b8:	3c02a080 	lui	v0,0xa080
a08064bc:	24456fdc 	addiu	a1,v0,28636
a08064c0:	0c20173b 	jal	a0805cec <printf>
a08064c4:	00000000 	nop
a08064c8:	8fc20010 	lw	v0,16(s8)
a08064cc:	24420003 	addiu	v0,v0,3
a08064d0:	8fc40014 	lw	a0,20(s8)
a08064d4:	00402821 	move	a1,v0
a08064d8:	0c20130d 	jal	a0804c34 <sys_move_cursor>
a08064dc:	00000000 	nop
a08064e0:	3c02a080 	lui	v0,0xa080
a08064e4:	24446e60 	addiu	a0,v0,28256
a08064e8:	3c02a080 	lui	v0,0xa080
a08064ec:	24456ff0 	addiu	a1,v0,28656
a08064f0:	0c20173b 	jal	a0805cec <printf>
a08064f4:	00000000 	nop
a08064f8:	8fc20014 	lw	v0,20(s8)
a08064fc:	2442ffff 	addiu	v0,v0,-1
a0806500:	afc20014 	sw	v0,20(s8)
a0806504:	8fc20014 	lw	v0,20(s8)
a0806508:	1c40ffcd 	bgtz	v0,a0806440 <drawing_task1+0x30>
a080650c:	00000000 	nop
a0806510:	24040001 	li	a0,1
a0806514:	8fc50010 	lw	a1,16(s8)
a0806518:	0c20130d 	jal	a0804c34 <sys_move_cursor>
a080651c:	00000000 	nop
a0806520:	3c02a080 	lui	v0,0xa080
a0806524:	24446e60 	addiu	a0,v0,28256
a0806528:	3c02a080 	lui	v0,0xa080
a080652c:	24456fa0 	addiu	a1,v0,28576
a0806530:	0c20173b 	jal	a0805cec <printf>
a0806534:	00000000 	nop
a0806538:	8fc20010 	lw	v0,16(s8)
a080653c:	24420001 	addiu	v0,v0,1
a0806540:	24040001 	li	a0,1
a0806544:	00402821 	move	a1,v0
a0806548:	0c20130d 	jal	a0804c34 <sys_move_cursor>
a080654c:	00000000 	nop
a0806550:	3c02a080 	lui	v0,0xa080
a0806554:	24446e60 	addiu	a0,v0,28256
a0806558:	3c02a080 	lui	v0,0xa080
a080655c:	24456fa0 	addiu	a1,v0,28576
a0806560:	0c20173b 	jal	a0805cec <printf>
a0806564:	00000000 	nop
a0806568:	8fc20010 	lw	v0,16(s8)
a080656c:	24420002 	addiu	v0,v0,2
a0806570:	24040001 	li	a0,1
a0806574:	00402821 	move	a1,v0
a0806578:	0c20130d 	jal	a0804c34 <sys_move_cursor>
a080657c:	00000000 	nop
a0806580:	3c02a080 	lui	v0,0xa080
a0806584:	24446e60 	addiu	a0,v0,28256
a0806588:	3c02a080 	lui	v0,0xa080
a080658c:	24456fa0 	addiu	a1,v0,28576
a0806590:	0c20173b 	jal	a0805cec <printf>
a0806594:	00000000 	nop
a0806598:	8fc20010 	lw	v0,16(s8)
a080659c:	24420003 	addiu	v0,v0,3
a08065a0:	24040001 	li	a0,1
a08065a4:	00402821 	move	a1,v0
a08065a8:	0c20130d 	jal	a0804c34 <sys_move_cursor>
a08065ac:	00000000 	nop
a08065b0:	3c02a080 	lui	v0,0xa080
a08065b4:	24446e60 	addiu	a0,v0,28256
a08065b8:	3c02a080 	lui	v0,0xa080
a08065bc:	24456fa0 	addiu	a1,v0,28576
a08065c0:	0c20173b 	jal	a0805cec <printf>
a08065c4:	00000000 	nop
a08065c8:	0820190c 	j	a0806430 <drawing_task1+0x20>
a08065cc:	00000000 	nop

a08065d0 <rand>:
a08065d0:	27bdffd8 	addiu	sp,sp,-40
a08065d4:	afbf0024 	sw	ra,36(sp)
a08065d8:	afbe0020 	sw	s8,32(sp)
a08065dc:	03a0f021 	move	s8,sp
a08065e0:	0c2000db 	jal	a080036c <GET_CP0_COUNT>
a08065e4:	00000000 	nop
a08065e8:	afc20010 	sw	v0,16(s8)
a08065ec:	8fc40010 	lw	a0,16(s8)
a08065f0:	3c0214f8 	lui	v0,0x14f8
a08065f4:	3442b589 	ori	v0,v0,0xb589
a08065f8:	00820018 	mult	a0,v0
a08065fc:	00001010 	mfhi	v0
a0806600:	00021b43 	sra	v1,v0,0xd
a0806604:	000417c3 	sra	v0,a0,0x1f
a0806608:	00621023 	subu	v0,v1,v0
a080660c:	afc20018 	sw	v0,24(s8)
a0806610:	8fc20018 	lw	v0,24(s8)
a0806614:	00021880 	sll	v1,v0,0x2
a0806618:	00031140 	sll	v0,v1,0x5
a080661c:	00431023 	subu	v0,v0,v1
a0806620:	8fc30018 	lw	v1,24(s8)
a0806624:	00431021 	addu	v0,v0,v1
a0806628:	00021880 	sll	v1,v0,0x2
a080662c:	00431021 	addu	v0,v0,v1
a0806630:	00021880 	sll	v1,v0,0x2
a0806634:	00431021 	addu	v0,v0,v1
a0806638:	00021140 	sll	v0,v0,0x5
a080663c:	00821023 	subu	v0,a0,v0
a0806640:	afc20018 	sw	v0,24(s8)
a0806644:	8fc20018 	lw	v0,24(s8)
a0806648:	03c0e821 	move	sp,s8
a080664c:	8fbf0024 	lw	ra,36(sp)
a0806650:	8fbe0020 	lw	s8,32(sp)
a0806654:	27bd0028 	addiu	sp,sp,40
a0806658:	03e00008 	jr	ra
a080665c:	00000000 	nop

a0806660 <disable_interrupt>:
a0806660:	27bdffe0 	addiu	sp,sp,-32
a0806664:	afbf001c 	sw	ra,28(sp)
a0806668:	afbe0018 	sw	s8,24(sp)
a080666c:	03a0f021 	move	s8,sp
a0806670:	0c2000d5 	jal	a0800354 <GET_CP0_STATUS>
a0806674:	00000000 	nop
a0806678:	afc20010 	sw	v0,16(s8)
a080667c:	8fc30010 	lw	v1,16(s8)
a0806680:	2402fffe 	li	v0,-2
a0806684:	00621024 	and	v0,v1,v0
a0806688:	afc20010 	sw	v0,16(s8)
a080668c:	8fc40010 	lw	a0,16(s8)
a0806690:	0c2000d8 	jal	a0800360 <SET_CP0_STATUS>
a0806694:	00000000 	nop
a0806698:	03c0e821 	move	sp,s8
a080669c:	8fbf001c 	lw	ra,28(sp)
a08066a0:	8fbe0018 	lw	s8,24(sp)
a08066a4:	27bd0020 	addiu	sp,sp,32
a08066a8:	03e00008 	jr	ra
a08066ac:	00000000 	nop

a08066b0 <enable_interrupt>:
a08066b0:	27bdffe0 	addiu	sp,sp,-32
a08066b4:	afbf001c 	sw	ra,28(sp)
a08066b8:	afbe0018 	sw	s8,24(sp)
a08066bc:	03a0f021 	move	s8,sp
a08066c0:	0c2000d5 	jal	a0800354 <GET_CP0_STATUS>
a08066c4:	00000000 	nop
a08066c8:	afc20010 	sw	v0,16(s8)
a08066cc:	8fc20010 	lw	v0,16(s8)
a08066d0:	34420001 	ori	v0,v0,0x1
a08066d4:	afc20010 	sw	v0,16(s8)
a08066d8:	8fc40010 	lw	a0,16(s8)
a08066dc:	0c2000d8 	jal	a0800360 <SET_CP0_STATUS>
a08066e0:	00000000 	nop
a08066e4:	03c0e821 	move	sp,s8
a08066e8:	8fbf001c 	lw	ra,28(sp)
a08066ec:	8fbe0018 	lw	s8,24(sp)
a08066f0:	27bd0020 	addiu	sp,sp,32
a08066f4:	03e00008 	jr	ra
a08066f8:	00000000 	nop

a08066fc <read_uart_ch>:
a08066fc:	27bdffe8 	addiu	sp,sp,-24
a0806700:	afbe0014 	sw	s8,20(sp)
a0806704:	03a0f021 	move	s8,sp
a0806708:	a3c00008 	sb	zero,8(s8)
a080670c:	3c02bfe4 	lui	v0,0xbfe4
a0806710:	34428000 	ori	v0,v0,0x8000
a0806714:	afc20004 	sw	v0,4(s8)
a0806718:	3c02bfe4 	lui	v0,0xbfe4
a080671c:	34428005 	ori	v0,v0,0x8005
a0806720:	afc20000 	sw	v0,0(s8)
a0806724:	082019ce 	j	a0806738 <read_uart_ch+0x3c>
a0806728:	00000000 	nop
a080672c:	8fc20004 	lw	v0,4(s8)
a0806730:	90420000 	lbu	v0,0(v0)
a0806734:	a3c20008 	sb	v0,8(s8)
a0806738:	8fc20000 	lw	v0,0(s8)
a080673c:	90420000 	lbu	v0,0(v0)
a0806740:	30420001 	andi	v0,v0,0x1
a0806744:	304200ff 	andi	v0,v0,0xff
a0806748:	1440fff8 	bnez	v0,a080672c <read_uart_ch+0x30>
a080674c:	00000000 	nop
a0806750:	83c20008 	lb	v0,8(s8)
a0806754:	03c0e821 	move	sp,s8
a0806758:	8fbe0014 	lw	s8,20(sp)
a080675c:	27bd0018 	addiu	sp,sp,24
a0806760:	03e00008 	jr	ra
a0806764:	00000000 	nop

a0806768 <scanf>:
a0806768:	27bdffc8 	addiu	sp,sp,-56
a080676c:	afbf0034 	sw	ra,52(sp)
a0806770:	afbe0030 	sw	s8,48(sp)
a0806774:	03a0f021 	move	s8,sp
a0806778:	afc40038 	sw	a0,56(s8)
a080677c:	afc00018 	sw	zero,24(s8)
a0806780:	0c201998 	jal	a0806660 <disable_interrupt>
a0806784:	00000000 	nop
a0806788:	0c20047e 	jal	a08011f8 <screen_reflush>
a080678c:	00000000 	nop
a0806790:	00002021 	move	a0,zero
a0806794:	24050003 	li	a1,3
a0806798:	0c2002ec 	jal	a0800bb0 <vt100_move_cursor>
a080679c:	00000000 	nop
a08067a0:	3c02a080 	lui	v0,0xa080
a08067a4:	24446e70 	addiu	a0,v0,28272
a08067a8:	0c201719 	jal	a0805c64 <printk>
a08067ac:	00000000 	nop
a08067b0:	00002021 	move	a0,zero
a08067b4:	24050003 	li	a1,3
a08067b8:	0c2002ec 	jal	a0800bb0 <vt100_move_cursor>
a08067bc:	00000000 	nop
a08067c0:	0c2019bf 	jal	a08066fc <read_uart_ch>
a08067c4:	00000000 	nop
a08067c8:	a3c20010 	sb	v0,16(s8)
a08067cc:	83c20010 	lb	v0,16(s8)
a08067d0:	1040fffb 	beqz	v0,a08067c0 <scanf+0x58>
a08067d4:	00000000 	nop
a08067d8:	83c30010 	lb	v1,16(s8)
a08067dc:	2402000d 	li	v0,13
a08067e0:	10620011 	beq	v1,v0,a0806828 <scanf+0xc0>
a08067e4:	00000000 	nop
a08067e8:	8fc30018 	lw	v1,24(s8)
a08067ec:	27c20010 	addiu	v0,s8,16
a08067f0:	00431821 	addu	v1,v0,v1
a08067f4:	93c20010 	lbu	v0,16(s8)
a08067f8:	a062000c 	sb	v0,12(v1)
a08067fc:	8fc20018 	lw	v0,24(s8)
a0806800:	24420001 	addiu	v0,v0,1
a0806804:	afc20018 	sw	v0,24(s8)
a0806808:	83c30010 	lb	v1,16(s8)
a080680c:	3c02a080 	lui	v0,0xa080
a0806810:	24446e90 	addiu	a0,v0,28304
a0806814:	00602821 	move	a1,v1
a0806818:	0c201719 	jal	a0805c64 <printk>
a080681c:	00000000 	nop
a0806820:	082019f0 	j	a08067c0 <scanf+0x58>
a0806824:	00000000 	nop
a0806828:	8fc30018 	lw	v1,24(s8)
a080682c:	27c20010 	addiu	v0,s8,16
a0806830:	00431821 	addu	v1,v0,v1
a0806834:	24020020 	li	v0,32
a0806838:	a062000c 	sb	v0,12(v1)
a080683c:	8fc20018 	lw	v0,24(s8)
a0806840:	24420001 	addiu	v0,v0,1
a0806844:	afc20018 	sw	v0,24(s8)
a0806848:	8fc30018 	lw	v1,24(s8)
a080684c:	27c20010 	addiu	v0,s8,16
a0806850:	00431021 	addu	v0,v0,v1
a0806854:	a040000c 	sb	zero,12(v0)
a0806858:	27c2001c 	addiu	v0,s8,28
a080685c:	00402021 	move	a0,v0
a0806860:	0c201492 	jal	a0805248 <atox>
a0806864:	00000000 	nop
a0806868:	afc20014 	sw	v0,20(s8)
a080686c:	8fc30038 	lw	v1,56(s8)
a0806870:	8fc20014 	lw	v0,20(s8)
a0806874:	ac620000 	sw	v0,0(v1)
a0806878:	0c2019ac 	jal	a08066b0 <enable_interrupt>
a080687c:	00000000 	nop
a0806880:	03c0e821 	move	sp,s8
a0806884:	8fbf0034 	lw	ra,52(sp)
a0806888:	8fbe0030 	lw	s8,48(sp)
a080688c:	27bd0038 	addiu	sp,sp,56
a0806890:	03e00008 	jr	ra
a0806894:	00000000 	nop

a0806898 <rw_task1>:
a0806898:	27bdffc0 	addiu	sp,sp,-64
a080689c:	afbf003c 	sw	ra,60(sp)
a08068a0:	afbe0038 	sw	s8,56(sp)
a08068a4:	afb00034 	sw	s0,52(sp)
a08068a8:	03a0f021 	move	s8,sp
a08068ac:	afc00018 	sw	zero,24(s8)
a08068b0:	24020004 	li	v0,4
a08068b4:	afc20014 	sw	v0,20(s8)
a08068b8:	afc00010 	sw	zero,16(s8)
a08068bc:	afc00010 	sw	zero,16(s8)
a08068c0:	08201a5d 	j	a0806974 <rw_task1+0xdc>
a08068c4:	00000000 	nop
a08068c8:	00002021 	move	a0,zero
a08068cc:	24050001 	li	a1,1
a08068d0:	0c20130d 	jal	a0804c34 <sys_move_cursor>
a08068d4:	00000000 	nop
a08068d8:	3c02a080 	lui	v0,0xa080
a08068dc:	24446e94 	addiu	a0,v0,28308
a08068e0:	8fc50010 	lw	a1,16(s8)
a08068e4:	0c20173b 	jal	a0805cec <printf>
a08068e8:	00000000 	nop
a08068ec:	27c2001c 	addiu	v0,s8,28
a08068f0:	00402021 	move	a0,v0
a08068f4:	0c2019da 	jal	a0806768 <scanf>
a08068f8:	00000000 	nop
a08068fc:	8fc30014 	lw	v1,20(s8)
a0806900:	8fc20010 	lw	v0,16(s8)
a0806904:	00621021 	addu	v0,v1,v0
a0806908:	00002021 	move	a0,zero
a080690c:	00402821 	move	a1,v0
a0806910:	0c20130d 	jal	a0804c34 <sys_move_cursor>
a0806914:	00000000 	nop
a0806918:	8fd00010 	lw	s0,16(s8)
a080691c:	0c201974 	jal	a08065d0 <rand>
a0806920:	00000000 	nop
a0806924:	afc20018 	sw	v0,24(s8)
a0806928:	00101080 	sll	v0,s0,0x2
a080692c:	27c30010 	addiu	v1,s8,16
a0806930:	00621021 	addu	v0,v1,v0
a0806934:	8fc30018 	lw	v1,24(s8)
a0806938:	ac430010 	sw	v1,16(v0)
a080693c:	8fc2001c 	lw	v0,28(s8)
a0806940:	00401821 	move	v1,v0
a0806944:	8fc20018 	lw	v0,24(s8)
a0806948:	ac620000 	sw	v0,0(v1)
a080694c:	8fc3001c 	lw	v1,28(s8)
a0806950:	3c02a080 	lui	v0,0xa080
a0806954:	24446eb0 	addiu	a0,v0,28336
a0806958:	00602821 	move	a1,v1
a080695c:	8fc60018 	lw	a2,24(s8)
a0806960:	0c20173b 	jal	a0805cec <printf>
a0806964:	00000000 	nop
a0806968:	8fc20010 	lw	v0,16(s8)
a080696c:	24420001 	addiu	v0,v0,1
a0806970:	afc20010 	sw	v0,16(s8)
a0806974:	8fc20010 	lw	v0,16(s8)
a0806978:	28420003 	slti	v0,v0,3
a080697c:	1440ffd2 	bnez	v0,a08068c8 <rw_task1+0x30>
a0806980:	00000000 	nop
a0806984:	8fc20014 	lw	v0,20(s8)
a0806988:	24420003 	addiu	v0,v0,3
a080698c:	afc20014 	sw	v0,20(s8)
a0806990:	afc00010 	sw	zero,16(s8)
a0806994:	08201aad 	j	a0806ab4 <rw_task1+0x21c>
a0806998:	00000000 	nop
a080699c:	00002021 	move	a0,zero
a08069a0:	24050001 	li	a1,1
a08069a4:	0c20130d 	jal	a0804c34 <sys_move_cursor>
a08069a8:	00000000 	nop
a08069ac:	3c02a080 	lui	v0,0xa080
a08069b0:	24446ec4 	addiu	a0,v0,28356
a08069b4:	8fc50010 	lw	a1,16(s8)
a08069b8:	0c20173b 	jal	a0805cec <printf>
a08069bc:	00000000 	nop
a08069c0:	27c2001c 	addiu	v0,s8,28
a08069c4:	00402021 	move	a0,v0
a08069c8:	0c2019da 	jal	a0806768 <scanf>
a08069cc:	00000000 	nop
a08069d0:	8fc30014 	lw	v1,20(s8)
a08069d4:	8fc20010 	lw	v0,16(s8)
a08069d8:	00621021 	addu	v0,v1,v0
a08069dc:	00002021 	move	a0,zero
a08069e0:	00402821 	move	a1,v0
a08069e4:	0c20130d 	jal	a0804c34 <sys_move_cursor>
a08069e8:	00000000 	nop
a08069ec:	8fc20010 	lw	v0,16(s8)
a08069f0:	24430003 	addiu	v1,v0,3
a08069f4:	8fc2001c 	lw	v0,28(s8)
a08069f8:	8c440000 	lw	a0,0(v0)
a08069fc:	00031080 	sll	v0,v1,0x2
a0806a00:	27c30010 	addiu	v1,s8,16
a0806a04:	00621021 	addu	v0,v1,v0
a0806a08:	ac440010 	sw	a0,16(v0)
a0806a0c:	8fc20010 	lw	v0,16(s8)
a0806a10:	24420003 	addiu	v0,v0,3
a0806a14:	00021080 	sll	v0,v0,0x2
a0806a18:	27c30010 	addiu	v1,s8,16
a0806a1c:	00621021 	addu	v0,v1,v0
a0806a20:	8c440010 	lw	a0,16(v0)
a0806a24:	8fc20010 	lw	v0,16(s8)
a0806a28:	00021080 	sll	v0,v0,0x2
a0806a2c:	27c30010 	addiu	v1,s8,16
a0806a30:	00621021 	addu	v0,v1,v0
a0806a34:	8c420010 	lw	v0,16(v0)
a0806a38:	1482000f 	bne	a0,v0,a0806a78 <rw_task1+0x1e0>
a0806a3c:	00000000 	nop
a0806a40:	8fc20010 	lw	v0,16(s8)
a0806a44:	24420003 	addiu	v0,v0,3
a0806a48:	00021080 	sll	v0,v0,0x2
a0806a4c:	27c30010 	addiu	v1,s8,16
a0806a50:	00621021 	addu	v0,v1,v0
a0806a54:	8c430010 	lw	v1,16(v0)
a0806a58:	8fc6001c 	lw	a2,28(s8)
a0806a5c:	3c02a080 	lui	v0,0xa080
a0806a60:	24446ee0 	addiu	a0,v0,28384
a0806a64:	00602821 	move	a1,v1
a0806a68:	0c20173b 	jal	a0805cec <printf>
a0806a6c:	00000000 	nop
a0806a70:	08201aaa 	j	a0806aa8 <rw_task1+0x210>
a0806a74:	00000000 	nop
a0806a78:	8fc20010 	lw	v0,16(s8)
a0806a7c:	24420003 	addiu	v0,v0,3
a0806a80:	00021080 	sll	v0,v0,0x2
a0806a84:	27c30010 	addiu	v1,s8,16
a0806a88:	00621021 	addu	v0,v1,v0
a0806a8c:	8c430010 	lw	v1,16(v0)
a0806a90:	8fc6001c 	lw	a2,28(s8)
a0806a94:	3c02a080 	lui	v0,0xa080
a0806a98:	24446f04 	addiu	a0,v0,28420
a0806a9c:	00602821 	move	a1,v1
a0806aa0:	0c20173b 	jal	a0805cec <printf>
a0806aa4:	00000000 	nop
a0806aa8:	8fc20010 	lw	v0,16(s8)
a0806aac:	24420001 	addiu	v0,v0,1
a0806ab0:	afc20010 	sw	v0,16(s8)
a0806ab4:	8fc20010 	lw	v0,16(s8)
a0806ab8:	28420003 	slti	v0,v0,3
a0806abc:	1440ffb7 	bnez	v0,a080699c <rw_task1+0x104>
a0806ac0:	00000000 	nop
a0806ac4:	08201ab1 	j	a0806ac4 <rw_task1+0x22c>
a0806ac8:	00000000 	nop
a0806acc:	00000000 	nop
a0806ad0:	255b6325 	addiu	k1,t2,25381
a0806ad4:	64253b64 	daddiu	a1,at,15204
a0806ad8:	00000048 	0x48
a0806adc:	325b6325 	andi	k1,s2,0x6325
a0806ae0:	0000004a 	0x4a
a0806ae4:	3f5b6325 	0x3f5b6325
a0806ae8:	006c3532 	tlt	v1,t4,0xd4
a0806aec:	00000000 	nop
a0806af0:	495b203e 	0x495b203e
a0806af4:	5d54494e 	0x5d54494e
a0806af8:	746e4920 	jalx	a1b92480 <__bbs_end+0x13783a0>
a0806afc:	75727265 	jalx	a5c9c994 <__bbs_end+0x54828b4>
a0806b00:	70207470 	0x70207470
a0806b04:	65636f72 	daddiu	v1,t3,28530
a0806b08:	6e697373 	ldr	t1,29555(s3)
a0806b0c:	6e692067 	ldr	t1,8295(s3)
a0806b10:	61697469 	daddi	t1,t3,29801
a0806b14:	617a696c 	daddi	k0,t3,26988
a0806b18:	6e6f6974 	ldr	t7,26996(s3)
a0806b1c:	63757320 	daddi	s5,k1,29472
a0806b20:	64656563 	daddiu	a1,v1,25955
a0806b24:	0a2e6465 	j	a8b99194 <__bbs_end+0x837f0b4>
a0806b28:	00000000 	nop
a0806b2c:	495b203e 	0x495b203e
a0806b30:	5d54494e 	0x5d54494e
a0806b34:	73795320 	0x73795320
a0806b38:	206d6574 	addi	t5,v1,25972
a0806b3c:	6c6c6163 	ldr	t4,24931(v1)
a0806b40:	696e6920 	ldl	t6,26912(t3)
a0806b44:	6c616974 	ldr	at,26996(v1)
a0806b48:	64657a69 	daddiu	a1,v1,31337
a0806b4c:	63757320 	daddi	s5,k1,29472
a0806b50:	73736563 	0x73736563
a0806b54:	6c6c7566 	ldr	t4,30054(v1)
a0806b58:	000a2e79 	0xa2e79
a0806b5c:	495b203e 	0x495b203e
a0806b60:	5d54494e 	0x5d54494e
a0806b64:	42435020 	c0	0x435020
a0806b68:	696e6920 	ldl	t6,26912(t3)
a0806b6c:	6c616974 	ldr	at,26996(v1)
a0806b70:	74617a69 	jalx	a185e9a4 <__bbs_end+0x10448c4>
a0806b74:	206e6f69 	addi	t6,v1,28521
a0806b78:	63637573 	daddi	v1,k1,30067
a0806b7c:	65646565 	daddiu	a0,t3,25957
a0806b80:	000a2e64 	0xa2e64
a0806b84:	495b203e 	0x495b203e
a0806b88:	5d54494e 	0x5d54494e
a0806b8c:	52435320 	beql	s2,v1,a081b810 <__bbs_end+0x1730>
a0806b90:	204e4545 	addi	t6,v0,17733
a0806b94:	74696e69 	jalx	a1a5b9a4 <__bbs_end+0x12418c4>
a0806b98:	696c6169 	ldl	t4,24937(t3)
a0806b9c:	6974617a 	ldl	s4,24954(t3)
a0806ba0:	73206e6f 	0x73206e6f
a0806ba4:	65636375 	daddiu	v1,t3,25461
a0806ba8:	64656465 	daddiu	a1,v1,25701
a0806bac:	00000a2e 	0xa2e
a0806bb0:	756c6176 	jalx	a5b185d8 <__bbs_end+0x52fe4f8>
a0806bb4:	72652065 	0x72652065
a0806bb8:	0a726f72 	j	a9c9bdc8 <__bbs_end+0x9481ce8>
a0806bbc:	00000000 	nop
a0806bc0:	54203e2d 	bnezl	at,a0816478 <_gp+0x73f8>
a0806bc4:	4520424c 	0x4520424c
a0806bc8:	70656378 	0x70656378
a0806bcc:	6e6f6974 	ldr	t7,26996(s3)
a0806bd0:	20642520 	addi	a0,v1,9504
a0806bd4:	20202020 	addi	zero,at,8224
a0806bd8:	20202020 	addi	zero,at,8224
a0806bdc:	20202020 	addi	zero,at,8224
a0806be0:	20202020 	addi	zero,at,8224
a0806be4:	00000000 	nop
a0806be8:	50203e2d 	beqzl	at,a08164a0 <_gp+0x7420>
a0806bec:	20656761 	addi	a1,v1,26465
a0806bf0:	6c756146 	ldr	s5,24902(v1)
a0806bf4:	78452074 	0x78452074
a0806bf8:	74706563 	jalx	a1c1958c <__bbs_end+0x13ff4ac>
a0806bfc:	206e6f69 	addi	t6,v1,28521
a0806c00:	20206425 	addi	zero,at,25637
a0806c04:	20202020 	addi	zero,at,8224
a0806c08:	00000000 	nop
a0806c0c:	45203e2d 	0x45203e2d
a0806c10:	70656378 	0x70656378
a0806c14:	6e6f6974 	ldr	t7,26996(s3)
a0806c18:	7753203a 	jalx	ad4c80e8 <__bbs_end+0xccae008>
a0806c1c:	50207061 	beqzl	at,a0822da4 <__bbs_end+0x8cc4>
a0806c20:	20656761 	addi	a1,v1,26465
a0806c24:	20206425 	addi	zero,at,25637
a0806c28:	20202020 	addi	zero,at,8224
a0806c2c:	20202020 	addi	zero,at,8224
a0806c30:	20202020 	addi	zero,at,8224
	...
a0806c40:	4b534154 	c2	0x1534154
a0806c44:	4f4c425f 	c3	0x14c425f
a0806c48:	44454b43 	0x44454b43
a0806c4c:	00000020 	add	zero,zero,zero
a0806c50:	4b534154 	c2	0x1534154
a0806c54:	4e55525f 	c3	0x55525f
a0806c58:	474e494e 	c1	0x14e494e
a0806c5c:	00000020 	add	zero,zero,zero
a0806c60:	4b534154 	c2	0x1534154
a0806c64:	4145525f 	0x4145525f
a0806c68:	20205944 	addi	zero,at,22852
a0806c6c:	00000020 	add	zero,zero,zero
a0806c70:	4b534154 	c2	0x1534154
a0806c74:	4958455f 	0x4958455f
a0806c78:	20444554 	addi	a0,v0,17748
a0806c7c:	00000020 	add	zero,zero,zero
a0806c80:	4b534154 	c2	0x1534154
a0806c84:	4941575f 	0x4941575f
a0806c88:	20202054 	addi	zero,at,8276
a0806c8c:	00000020 	add	zero,zero,zero
a0806c90:	a08030f4 	sb	zero,12532(a0)
a0806c94:	a080310c 	sb	zero,12556(a0)
a0806c98:	a0803124 	sb	zero,12580(a0)
a0806c9c:	a080313c 	sb	zero,12604(a0)
a0806ca0:	a0803154 	sb	zero,12628(a0)
a0806ca4:	5d64255b 	0x5d64255b
a0806ca8:	00000020 	add	zero,zero,zero
a0806cac:	20444950 	addi	a0,v0,18768
a0806cb0:	6425203a 	daddiu	a1,at,8250
a0806cb4:	20202020 	addi	zero,at,8224
a0806cb8:	00000000 	nop
a0806cbc:	54415453 	bnel	v0,at,a081be0c <__bbs_end+0x1d2c>
a0806cc0:	3a205355 	xori	zero,s1,0x5355
a0806cc4:	00000020 	add	zero,zero,zero
a0806cc8:	50202020 	beqzl	at,a080ed4c <physical_mem+0x27ec>
a0806ccc:	524f4952 	beql	s2,t7,a0819218 <pcb+0x838>
a0806cd0:	20595449 	addi	t9,v0,21577
a0806cd4:	6425203a 	daddiu	a1,at,8250
a0806cd8:	00000020 	add	zero,zero,zero
a0806cdc:	0000000a 	0xa
a0806ce0:	2d2d2d2d 	sltiu	t5,t1,11565
a0806ce4:	2d2d2d2d 	sltiu	t5,t1,11565
a0806ce8:	2d2d2d2d 	sltiu	t5,t1,11565
a0806cec:	2d2d2d2d 	sltiu	t5,t1,11565
a0806cf0:	2d2d2d2d 	sltiu	t5,t1,11565
a0806cf4:	2d2d2d2d 	sltiu	t5,t1,11565
a0806cf8:	2d2d2d2d 	sltiu	t5,t1,11565
a0806cfc:	2d2d2d2d 	sltiu	t5,t1,11565
a0806d00:	2d2d2d2d 	sltiu	t5,t1,11565
a0806d04:	4d524554 	0x4d524554
a0806d08:	4c414e49 	0x4c414e49
a0806d0c:	2d2d2d2d 	sltiu	t5,t1,11565
a0806d10:	2d2d2d2d 	sltiu	t5,t1,11565
a0806d14:	2d2d2d2d 	sltiu	t5,t1,11565
a0806d18:	2d2d2d2d 	sltiu	t5,t1,11565
a0806d1c:	2d2d2d2d 	sltiu	t5,t1,11565
a0806d20:	2d2d2d2d 	sltiu	t5,t1,11565
a0806d24:	2d2d2d2d 	sltiu	t5,t1,11565
a0806d28:	2d2d2d2d 	sltiu	t5,t1,11565
a0806d2c:	0a2d2d2d 	j	a8b4b4b4 <__bbs_end+0x83313d4>
a0806d30:	00000000 	nop
a0806d34:	6e6f7257 	ldr	t7,29271(s3)
a0806d38:	69702067 	ldl	s0,8295(t3)
a0806d3c:	00000a64 	0xa64
a0806d40:	72656854 	0x72656854
a0806d44:	73692065 	0x73692065
a0806d48:	206f6e20 	addi	t7,v1,28192
a0806d4c:	63617073 	daddi	at,k1,28787
a0806d50:	6f662065 	ldr	a2,8293(k1)
a0806d54:	6f6d2072 	ldr	t5,8306(k1)
a0806d58:	70206572 	0x70206572
a0806d5c:	65636f72 	daddiu	v1,t3,28530
a0806d60:	000a7373 	tltu	zero,t2,0x1cd
a0806d64:	74696157 	jalx	a1a5855c <__bbs_end+0x123e47c>
a0806d68:	20676e69 	addi	a3,v1,28265
a0806d6c:	6b736154 	ldl	s3,24916(k1)
a0806d70:	656f4420 	daddiu	t7,t3,17440
a0806d74:	6f4e2073 	ldr	t6,8307(k0)
a0806d78:	78652074 	0x78652074
a0806d7c:	0a747369 	j	a9d1cda4 <__bbs_end+0x9502cc4>
a0806d80:	00000000 	nop
	...
a0806d90:	6b736174 	ldl	s3,24948(k1)
a0806d94:	00000031 	tgeu	zero,zero
a0806d98:	6b736174 	ldl	s3,24948(k1)
a0806d9c:	00000032 	tlt	zero,zero
a0806da0:	00007370 	tge	zero,zero,0x1cd
a0806da4:	61656c63 	daddi	a1,t3,27747
a0806da8:	00000072 	tlt	zero,zero,0x1
a0806dac:	74697865 	jalx	a1a5e194 <__bbs_end+0x12440b4>
a0806db0:	00000000 	nop
a0806db4:	6e6b6e55 	ldr	t3,28245(s3)
a0806db8:	206e776f 	addi	t6,v1,30575
a0806dbc:	6d6d6f43 	ldr	t5,28483(t3)
a0806dc0:	0a646e61 	j	a991b984 <__bbs_end+0x91018a4>
a0806dc4:	00000000 	nop
a0806dc8:	006c6c61 	0x6c6c61
a0806dcc:	63657865 	daddi	a1,k1,30821
a0806dd0:	00000000 	nop
a0806dd4:	6c6c696b 	ldr	t4,26987(v1)
a0806dd8:	00000000 	nop
a0806ddc:	6f6b6e55 	ldr	t3,28245(k1)
a0806de0:	206e776e 	addi	t6,v1,30574
a0806de4:	6d6d6f43 	ldr	t5,28483(t3)
a0806de8:	0a646e61 	j	a991b984 <__bbs_end+0x91018a4>
a0806dec:	00000000 	nop
a0806df0:	2d2d2d2d 	sltiu	t5,t1,11565
a0806df4:	2d2d2d2d 	sltiu	t5,t1,11565
a0806df8:	2d2d2d2d 	sltiu	t5,t1,11565
a0806dfc:	2d2d2d2d 	sltiu	t5,t1,11565
a0806e00:	2d2d2d2d 	sltiu	t5,t1,11565
a0806e04:	2d2d2d2d 	sltiu	t5,t1,11565
a0806e08:	2d2d2d2d 	sltiu	t5,t1,11565
a0806e0c:	2d2d2d2d 	sltiu	t5,t1,11565
a0806e10:	2d2d2d2d 	sltiu	t5,t1,11565
a0806e14:	4d524554 	0x4d524554
a0806e18:	4c414e49 	0x4c414e49
a0806e1c:	2d2d2d2d 	sltiu	t5,t1,11565
a0806e20:	2d2d2d2d 	sltiu	t5,t1,11565
a0806e24:	2d2d2d2d 	sltiu	t5,t1,11565
a0806e28:	2d2d2d2d 	sltiu	t5,t1,11565
a0806e2c:	2d2d2d2d 	sltiu	t5,t1,11565
a0806e30:	2d2d2d2d 	sltiu	t5,t1,11565
a0806e34:	2d2d2d2d 	sltiu	t5,t1,11565
a0806e38:	2d2d2d2d 	sltiu	t5,t1,11565
a0806e3c:	0a2d2d2d 	j	a8b4b4b4 <__bbs_end+0x83313d4>
a0806e40:	00000000 	nop
a0806e44:	6f723e2d 	ldr	s2,15917(k1)
a0806e48:	5a40746f 	blezl	s2,a0824008 <__bbs_end+0x9f28>
a0806e4c:	534f5f4c 	beql	k0,t7,a081eb80 <__bbs_end+0x4aa0>
a0806e50:	0000203a 	dsrl	a0,zero,0x0
a0806e54:	00006325 	0x6325
a0806e58:	0000000a 	0xa
a0806e5c:	00000000 	nop
a0806e60:	00007325 	0x7325
	...
a0806e70:	20202020 	addi	zero,at,8224
a0806e74:	20202020 	addi	zero,at,8224
a0806e78:	20202020 	addi	zero,at,8224
a0806e7c:	20202020 	addi	zero,at,8224
a0806e80:	20202020 	addi	zero,at,8224
a0806e84:	20202020 	addi	zero,at,8224
a0806e88:	20202020 	addi	zero,at,8224
a0806e8c:	00000020 	add	zero,zero,zero
a0806e90:	00006325 	0x6325
a0806e94:	75706e69 	jalx	a5c1b9a4 <__bbs_end+0x54018c4>
a0806e98:	72772074 	0x72772074
a0806e9c:	20657469 	addi	a1,v1,29801
a0806ea0:	72646461 	0x72646461
a0806ea4:	20737365 	addi	s3,v1,29541
a0806ea8:	203a6425 	addi	k0,at,25637
a0806eac:	00000020 	add	zero,zero,zero
a0806eb0:	57203e2d 	bnezl	t9,a0816768 <_gp+0x76e8>
a0806eb4:	65746972 	daddiu	s4,t3,26994
a0806eb8:	7830203a 	0x7830203a
a0806ebc:	202c7825 	addi	t4,at,30757
a0806ec0:	00006425 	0x6425
a0806ec4:	75706e69 	jalx	a5c1b9a4 <__bbs_end+0x54018c4>
a0806ec8:	65722074 	daddiu	s2,t3,8308
a0806ecc:	61206461 	daddi	zero,t1,25697
a0806ed0:	65726464 	daddiu	s2,t3,25700
a0806ed4:	25207373 	addiu	zero,t1,29555
a0806ed8:	20203a64 	addi	zero,at,14948
a0806edc:	00000000 	nop
a0806ee0:	52203e2d 	beqzl	s1,a0816798 <_gp+0x7718>
a0806ee4:	20646165 	addi	a0,v1,24933
a0806ee8:	63637573 	daddi	v1,k1,30067
a0806eec:	3a646565 	xori	a0,s3,0x6565
a0806ef0:	2c642520 	sltiu	a0,v1,9504
a0806ef4:	64646120 	daddiu	a0,v1,24864
a0806ef8:	73736572 	0x73736572
a0806efc:	7830203a 	0x7830203a
a0806f00:	00007825 	move	t7,zero
a0806f04:	52203e2d 	beqzl	s1,a08167bc <_gp+0x773c>
a0806f08:	20646165 	addi	a0,v1,24933
a0806f0c:	6f727265 	ldr	s2,29285(k1)
a0806f10:	25203a72 	addiu	zero,t1,14962
a0806f14:	61202c64 	daddi	zero,t1,11364
a0806f18:	72726464 	0x72726464
a0806f1c:	3a737365 	xori	s3,s3,0x7365
a0806f20:	25783020 	addiu	t8,t3,12320
a0806f24:	00000078 	dsll	zero,zero,0x1
	...
a0806f30:	fffffffe 	sd	ra,-2(ra)
	...
